Archive member included to satisfy reference by file (symbol)

/home/mritunjya/rooms/cryptography/crypto-hack/crackmes-one/glibc-2.34/build/libc_pic.a(check_fds.os)
                              /home/mritunjya/rooms/cryptography/crypto-hack/crackmes-one/glibc-2.34/build/elf/dl-allobjs.os (__libc_check_standard_fds)
/home/mritunjya/rooms/cryptography/crypto-hack/crackmes-one/glibc-2.34/build/libc_pic.a(errno.os)
                              /home/mritunjya/rooms/cryptography/crypto-hack/crackmes-one/glibc-2.34/build/libc_pic.a(check_fds.os) (__libc_errno)
/home/mritunjya/rooms/cryptography/crypto-hack/crackmes-one/glibc-2.34/build/libc_pic.a(setjmp.os)
                              /home/mritunjya/rooms/cryptography/crypto-hack/crackmes-one/glibc-2.34/build/elf/dl-allobjs.os (__sigsetjmp)
/home/mritunjya/rooms/cryptography/crypto-hack/crackmes-one/glibc-2.34/build/libc_pic.a(__longjmp.os)
                              /home/mritunjya/rooms/cryptography/crypto-hack/crackmes-one/glibc-2.34/build/elf/dl-allobjs.os (__longjmp)
/home/mritunjya/rooms/cryptography/crypto-hack/crackmes-one/glibc-2.34/build/libc_pic.a(lowlevellock.os)
                              /home/mritunjya/rooms/cryptography/crypto-hack/crackmes-one/glibc-2.34/build/elf/dl-allobjs.os (__lll_lock_wait_private)
/home/mritunjya/rooms/cryptography/crypto-hack/crackmes-one/glibc-2.34/build/libc_pic.a(scratch_buffer_set_array_size.os)
                              /home/mritunjya/rooms/cryptography/crypto-hack/crackmes-one/glibc-2.34/build/elf/dl-allobjs.os (__libc_scratch_buffer_set_array_size)
/home/mritunjya/rooms/cryptography/crypto-hack/crackmes-one/glibc-2.34/build/libc_pic.a(strchr.os)
                              /home/mritunjya/rooms/cryptography/crypto-hack/crackmes-one/glibc-2.34/build/elf/dl-allobjs.os (strchr)
/home/mritunjya/rooms/cryptography/crypto-hack/crackmes-one/glibc-2.34/build/libc_pic.a(strcmp.os)
                              /home/mritunjya/rooms/cryptography/crypto-hack/crackmes-one/glibc-2.34/build/elf/dl-allobjs.os (strcmp)
/home/mritunjya/rooms/cryptography/crypto-hack/crackmes-one/glibc-2.34/build/libc_pic.a(strcspn.os)
                              /home/mritunjya/rooms/cryptography/crypto-hack/crackmes-one/glibc-2.34/build/elf/dl-allobjs.os (strcspn)
/home/mritunjya/rooms/cryptography/crypto-hack/crackmes-one/glibc-2.34/build/libc_pic.a(strdup.os)
                              /home/mritunjya/rooms/cryptography/crypto-hack/crackmes-one/glibc-2.34/build/elf/dl-allobjs.os (__strdup)
/home/mritunjya/rooms/cryptography/crypto-hack/crackmes-one/glibc-2.34/build/libc_pic.a(strlen.os)
                              /home/mritunjya/rooms/cryptography/crypto-hack/crackmes-one/glibc-2.34/build/elf/dl-allobjs.os (strlen)
/home/mritunjya/rooms/cryptography/crypto-hack/crackmes-one/glibc-2.34/build/libc_pic.a(strnlen.os)
                              /home/mritunjya/rooms/cryptography/crypto-hack/crackmes-one/glibc-2.34/build/elf/dl-allobjs.os (strnlen)
/home/mritunjya/rooms/cryptography/crypto-hack/crackmes-one/glibc-2.34/build/libc_pic.a(strncmp.os)
                              /home/mritunjya/rooms/cryptography/crypto-hack/crackmes-one/glibc-2.34/build/elf/dl-allobjs.os (strncmp)
/home/mritunjya/rooms/cryptography/crypto-hack/crackmes-one/glibc-2.34/build/libc_pic.a(memchr.os)
                              /home/mritunjya/rooms/cryptography/crypto-hack/crackmes-one/glibc-2.34/build/elf/dl-allobjs.os (memchr)
/home/mritunjya/rooms/cryptography/crypto-hack/crackmes-one/glibc-2.34/build/libc_pic.a(memcmp.os)
                              /home/mritunjya/rooms/cryptography/crypto-hack/crackmes-one/glibc-2.34/build/elf/dl-allobjs.os (memcmp)
/home/mritunjya/rooms/cryptography/crypto-hack/crackmes-one/glibc-2.34/build/libc_pic.a(memmove.os)
                              /home/mritunjya/rooms/cryptography/crypto-hack/crackmes-one/glibc-2.34/build/elf/dl-allobjs.os (memmove)
/home/mritunjya/rooms/cryptography/crypto-hack/crackmes-one/glibc-2.34/build/libc_pic.a(memset.os)
                              /home/mritunjya/rooms/cryptography/crypto-hack/crackmes-one/glibc-2.34/build/elf/dl-allobjs.os (memset)
/home/mritunjya/rooms/cryptography/crypto-hack/crackmes-one/glibc-2.34/build/libc_pic.a(mempcpy.os)
                              /home/mritunjya/rooms/cryptography/crypto-hack/crackmes-one/glibc-2.34/build/elf/dl-allobjs.os (__mempcpy)
/home/mritunjya/rooms/cryptography/crypto-hack/crackmes-one/glibc-2.34/build/libc_pic.a(stpcpy.os)
                              /home/mritunjya/rooms/cryptography/crypto-hack/crackmes-one/glibc-2.34/build/elf/dl-allobjs.os (__stpcpy)
/home/mritunjya/rooms/cryptography/crypto-hack/crackmes-one/glibc-2.34/build/libc_pic.a(memcpy.os)
                              /home/mritunjya/rooms/cryptography/crypto-hack/crackmes-one/glibc-2.34/build/libc_pic.a(check_fds.os) (__GI_memcpy)
/home/mritunjya/rooms/cryptography/crypto-hack/crackmes-one/glibc-2.34/build/libc_pic.a(rawmemchr.os)
                              /home/mritunjya/rooms/cryptography/crypto-hack/crackmes-one/glibc-2.34/build/elf/dl-allobjs.os (rawmemchr)
/home/mritunjya/rooms/cryptography/crypto-hack/crackmes-one/glibc-2.34/build/libc_pic.a(strcmp-sse2.os)
                              /home/mritunjya/rooms/cryptography/crypto-hack/crackmes-one/glibc-2.34/build/libc_pic.a(strcmp.os) (__strcmp_sse2)
/home/mritunjya/rooms/cryptography/crypto-hack/crackmes-one/glibc-2.34/build/libc_pic.a(strcmp-sse2-unaligned.os)
                              /home/mritunjya/rooms/cryptography/crypto-hack/crackmes-one/glibc-2.34/build/libc_pic.a(strcmp.os) (__strcmp_sse2_unaligned)
/home/mritunjya/rooms/cryptography/crypto-hack/crackmes-one/glibc-2.34/build/libc_pic.a(strcmp-ssse3.os)
                              /home/mritunjya/rooms/cryptography/crypto-hack/crackmes-one/glibc-2.34/build/libc_pic.a(strcmp.os) (__strcmp_ssse3)
/home/mritunjya/rooms/cryptography/crypto-hack/crackmes-one/glibc-2.34/build/libc_pic.a(strcmp-avx2.os)
                              /home/mritunjya/rooms/cryptography/crypto-hack/crackmes-one/glibc-2.34/build/libc_pic.a(strcmp.os) (__strcmp_avx2)
/home/mritunjya/rooms/cryptography/crypto-hack/crackmes-one/glibc-2.34/build/libc_pic.a(strncmp-sse2.os)
                              /home/mritunjya/rooms/cryptography/crypto-hack/crackmes-one/glibc-2.34/build/libc_pic.a(strncmp.os) (__strncmp_sse2)
/home/mritunjya/rooms/cryptography/crypto-hack/crackmes-one/glibc-2.34/build/libc_pic.a(strncmp-ssse3.os)
                              /home/mritunjya/rooms/cryptography/crypto-hack/crackmes-one/glibc-2.34/build/libc_pic.a(strncmp.os) (__strncmp_ssse3)
/home/mritunjya/rooms/cryptography/crypto-hack/crackmes-one/glibc-2.34/build/libc_pic.a(strncmp-sse4_2.os)
                              /home/mritunjya/rooms/cryptography/crypto-hack/crackmes-one/glibc-2.34/build/libc_pic.a(strncmp.os) (__strncmp_sse42)
/home/mritunjya/rooms/cryptography/crypto-hack/crackmes-one/glibc-2.34/build/libc_pic.a(strncmp-avx2.os)
                              /home/mritunjya/rooms/cryptography/crypto-hack/crackmes-one/glibc-2.34/build/libc_pic.a(strncmp.os) (__strncmp_avx2)
/home/mritunjya/rooms/cryptography/crypto-hack/crackmes-one/glibc-2.34/build/libc_pic.a(memchr-sse2.os)
                              /home/mritunjya/rooms/cryptography/crypto-hack/crackmes-one/glibc-2.34/build/libc_pic.a(memchr.os) (__memchr_sse2)
/home/mritunjya/rooms/cryptography/crypto-hack/crackmes-one/glibc-2.34/build/libc_pic.a(rawmemchr-sse2.os)
                              /home/mritunjya/rooms/cryptography/crypto-hack/crackmes-one/glibc-2.34/build/libc_pic.a(rawmemchr.os) (__rawmemchr_sse2)
/home/mritunjya/rooms/cryptography/crypto-hack/crackmes-one/glibc-2.34/build/libc_pic.a(memchr-avx2.os)
                              /home/mritunjya/rooms/cryptography/crypto-hack/crackmes-one/glibc-2.34/build/libc_pic.a(memchr.os) (__memchr_avx2)
/home/mritunjya/rooms/cryptography/crypto-hack/crackmes-one/glibc-2.34/build/libc_pic.a(rawmemchr-avx2.os)
                              /home/mritunjya/rooms/cryptography/crypto-hack/crackmes-one/glibc-2.34/build/libc_pic.a(rawmemchr.os) (__rawmemchr_avx2)
/home/mritunjya/rooms/cryptography/crypto-hack/crackmes-one/glibc-2.34/build/libc_pic.a(memcmp-sse2.os)
                              /home/mritunjya/rooms/cryptography/crypto-hack/crackmes-one/glibc-2.34/build/libc_pic.a(memcmp.os) (__memcmp_sse2)
/home/mritunjya/rooms/cryptography/crypto-hack/crackmes-one/glibc-2.34/build/libc_pic.a(memcmp-avx2-movbe.os)
                              /home/mritunjya/rooms/cryptography/crypto-hack/crackmes-one/glibc-2.34/build/libc_pic.a(memcmp.os) (__memcmp_avx2_movbe)
/home/mritunjya/rooms/cryptography/crypto-hack/crackmes-one/glibc-2.34/build/libc_pic.a(memcmp-sse4.os)
                              /home/mritunjya/rooms/cryptography/crypto-hack/crackmes-one/glibc-2.34/build/libc_pic.a(memcmp.os) (__memcmp_sse4_1)
/home/mritunjya/rooms/cryptography/crypto-hack/crackmes-one/glibc-2.34/build/libc_pic.a(memcpy-ssse3.os)
                              /home/mritunjya/rooms/cryptography/crypto-hack/crackmes-one/glibc-2.34/build/libc_pic.a(mempcpy.os) (__mempcpy_ssse3)
/home/mritunjya/rooms/cryptography/crypto-hack/crackmes-one/glibc-2.34/build/libc_pic.a(memmove-ssse3.os)
                              /home/mritunjya/rooms/cryptography/crypto-hack/crackmes-one/glibc-2.34/build/libc_pic.a(memmove.os) (__memmove_ssse3)
/home/mritunjya/rooms/cryptography/crypto-hack/crackmes-one/glibc-2.34/build/libc_pic.a(memcpy-ssse3-back.os)
                              /home/mritunjya/rooms/cryptography/crypto-hack/crackmes-one/glibc-2.34/build/libc_pic.a(mempcpy.os) (__mempcpy_ssse3_back)
/home/mritunjya/rooms/cryptography/crypto-hack/crackmes-one/glibc-2.34/build/libc_pic.a(memmove-ssse3-back.os)
                              /home/mritunjya/rooms/cryptography/crypto-hack/crackmes-one/glibc-2.34/build/libc_pic.a(memmove.os) (__memmove_ssse3_back)
/home/mritunjya/rooms/cryptography/crypto-hack/crackmes-one/glibc-2.34/build/libc_pic.a(memmove-avx512-no-vzeroupper.os)
                              /home/mritunjya/rooms/cryptography/crypto-hack/crackmes-one/glibc-2.34/build/libc_pic.a(mempcpy.os) (__mempcpy_avx512_no_vzeroupper)
/home/mritunjya/rooms/cryptography/crypto-hack/crackmes-one/glibc-2.34/build/libc_pic.a(strchr-sse2.os)
                              /home/mritunjya/rooms/cryptography/crypto-hack/crackmes-one/glibc-2.34/build/libc_pic.a(strchr.os) (__strchr_sse2)
/home/mritunjya/rooms/cryptography/crypto-hack/crackmes-one/glibc-2.34/build/libc_pic.a(strchr-avx2.os)
                              /home/mritunjya/rooms/cryptography/crypto-hack/crackmes-one/glibc-2.34/build/libc_pic.a(strchr.os) (__strchr_avx2)
/home/mritunjya/rooms/cryptography/crypto-hack/crackmes-one/glibc-2.34/build/libc_pic.a(strlen-sse2.os)
                              /home/mritunjya/rooms/cryptography/crypto-hack/crackmes-one/glibc-2.34/build/libc_pic.a(strlen.os) (__strlen_sse2)
/home/mritunjya/rooms/cryptography/crypto-hack/crackmes-one/glibc-2.34/build/libc_pic.a(strnlen-sse2.os)
                              /home/mritunjya/rooms/cryptography/crypto-hack/crackmes-one/glibc-2.34/build/libc_pic.a(strnlen.os) (__strnlen_sse2)
/home/mritunjya/rooms/cryptography/crypto-hack/crackmes-one/glibc-2.34/build/libc_pic.a(strlen-avx2.os)
                              /home/mritunjya/rooms/cryptography/crypto-hack/crackmes-one/glibc-2.34/build/libc_pic.a(strlen.os) (__strlen_avx2)
/home/mritunjya/rooms/cryptography/crypto-hack/crackmes-one/glibc-2.34/build/libc_pic.a(strnlen-avx2.os)
                              /home/mritunjya/rooms/cryptography/crypto-hack/crackmes-one/glibc-2.34/build/libc_pic.a(strnlen.os) (__strnlen_avx2)
/home/mritunjya/rooms/cryptography/crypto-hack/crackmes-one/glibc-2.34/build/libc_pic.a(stpcpy-sse2.os)
                              /home/mritunjya/rooms/cryptography/crypto-hack/crackmes-one/glibc-2.34/build/libc_pic.a(stpcpy.os) (__stpcpy_sse2)
/home/mritunjya/rooms/cryptography/crypto-hack/crackmes-one/glibc-2.34/build/libc_pic.a(stpcpy-ssse3.os)
                              /home/mritunjya/rooms/cryptography/crypto-hack/crackmes-one/glibc-2.34/build/libc_pic.a(stpcpy.os) (__stpcpy_ssse3)
/home/mritunjya/rooms/cryptography/crypto-hack/crackmes-one/glibc-2.34/build/libc_pic.a(stpcpy-sse2-unaligned.os)
                              /home/mritunjya/rooms/cryptography/crypto-hack/crackmes-one/glibc-2.34/build/libc_pic.a(stpcpy.os) (__stpcpy_sse2_unaligned)
/home/mritunjya/rooms/cryptography/crypto-hack/crackmes-one/glibc-2.34/build/libc_pic.a(stpcpy-avx2.os)
                              /home/mritunjya/rooms/cryptography/crypto-hack/crackmes-one/glibc-2.34/build/libc_pic.a(stpcpy.os) (__stpcpy_avx2)
/home/mritunjya/rooms/cryptography/crypto-hack/crackmes-one/glibc-2.34/build/libc_pic.a(strchr-sse2-no-bsf.os)
                              /home/mritunjya/rooms/cryptography/crypto-hack/crackmes-one/glibc-2.34/build/libc_pic.a(strchr.os) (__strchr_sse2_no_bsf)
/home/mritunjya/rooms/cryptography/crypto-hack/crackmes-one/glibc-2.34/build/libc_pic.a(memcmp-ssse3.os)
                              /home/mritunjya/rooms/cryptography/crypto-hack/crackmes-one/glibc-2.34/build/libc_pic.a(memcmp.os) (__memcmp_ssse3)
/home/mritunjya/rooms/cryptography/crypto-hack/crackmes-one/glibc-2.34/build/libc_pic.a(strcspn-sse2.os)
                              /home/mritunjya/rooms/cryptography/crypto-hack/crackmes-one/glibc-2.34/build/libc_pic.a(strcspn.os) (__strcspn_sse2)
/home/mritunjya/rooms/cryptography/crypto-hack/crackmes-one/glibc-2.34/build/libc_pic.a(strcspn-c.os)
                              /home/mritunjya/rooms/cryptography/crypto-hack/crackmes-one/glibc-2.34/build/libc_pic.a(strcspn.os) (__strcspn_sse42)
/home/mritunjya/rooms/cryptography/crypto-hack/crackmes-one/glibc-2.34/build/libc_pic.a(varshift.os)
                              /home/mritunjya/rooms/cryptography/crypto-hack/crackmes-one/glibc-2.34/build/libc_pic.a(strcspn-c.os) (___m128i_shift_right)
/home/mritunjya/rooms/cryptography/crypto-hack/crackmes-one/glibc-2.34/build/libc_pic.a(memset-avx512-no-vzeroupper.os)
                              /home/mritunjya/rooms/cryptography/crypto-hack/crackmes-one/glibc-2.34/build/libc_pic.a(memset.os) (__memset_avx512_no_vzeroupper)
/home/mritunjya/rooms/cryptography/crypto-hack/crackmes-one/glibc-2.34/build/libc_pic.a(memmove-sse2-unaligned-erms.os)
                              /home/mritunjya/rooms/cryptography/crypto-hack/crackmes-one/glibc-2.34/build/libc_pic.a(mempcpy.os) (__mempcpy_sse2_unaligned)
/home/mritunjya/rooms/cryptography/crypto-hack/crackmes-one/glibc-2.34/build/libc_pic.a(memmove-avx-unaligned-erms.os)
                              /home/mritunjya/rooms/cryptography/crypto-hack/crackmes-one/glibc-2.34/build/libc_pic.a(mempcpy.os) (__mempcpy_avx_unaligned)
/home/mritunjya/rooms/cryptography/crypto-hack/crackmes-one/glibc-2.34/build/libc_pic.a(memmove-avx512-unaligned-erms.os)
                              /home/mritunjya/rooms/cryptography/crypto-hack/crackmes-one/glibc-2.34/build/libc_pic.a(mempcpy.os) (__mempcpy_avx512_unaligned)
/home/mritunjya/rooms/cryptography/crypto-hack/crackmes-one/glibc-2.34/build/libc_pic.a(memset-sse2-unaligned-erms.os)
                              /home/mritunjya/rooms/cryptography/crypto-hack/crackmes-one/glibc-2.34/build/libc_pic.a(memset.os) (__memset_sse2_unaligned)
/home/mritunjya/rooms/cryptography/crypto-hack/crackmes-one/glibc-2.34/build/libc_pic.a(memset-avx2-unaligned-erms.os)
                              /home/mritunjya/rooms/cryptography/crypto-hack/crackmes-one/glibc-2.34/build/libc_pic.a(memset.os) (__memset_avx2_unaligned)
/home/mritunjya/rooms/cryptography/crypto-hack/crackmes-one/glibc-2.34/build/libc_pic.a(memset-avx512-unaligned-erms.os)
                              /home/mritunjya/rooms/cryptography/crypto-hack/crackmes-one/glibc-2.34/build/libc_pic.a(memset.os) (__memset_avx512_unaligned)
/home/mritunjya/rooms/cryptography/crypto-hack/crackmes-one/glibc-2.34/build/libc_pic.a(memchr-avx2-rtm.os)
                              /home/mritunjya/rooms/cryptography/crypto-hack/crackmes-one/glibc-2.34/build/libc_pic.a(memchr.os) (__memchr_avx2_rtm)
/home/mritunjya/rooms/cryptography/crypto-hack/crackmes-one/glibc-2.34/build/libc_pic.a(memcmp-avx2-movbe-rtm.os)
                              /home/mritunjya/rooms/cryptography/crypto-hack/crackmes-one/glibc-2.34/build/libc_pic.a(memcmp.os) (__memcmp_avx2_movbe_rtm)
/home/mritunjya/rooms/cryptography/crypto-hack/crackmes-one/glibc-2.34/build/libc_pic.a(memmove-avx-unaligned-erms-rtm.os)
                              /home/mritunjya/rooms/cryptography/crypto-hack/crackmes-one/glibc-2.34/build/libc_pic.a(mempcpy.os) (__mempcpy_avx_unaligned_rtm)
/home/mritunjya/rooms/cryptography/crypto-hack/crackmes-one/glibc-2.34/build/libc_pic.a(memset-avx2-unaligned-erms-rtm.os)
                              /home/mritunjya/rooms/cryptography/crypto-hack/crackmes-one/glibc-2.34/build/libc_pic.a(memset.os) (__memset_avx2_unaligned_rtm)
/home/mritunjya/rooms/cryptography/crypto-hack/crackmes-one/glibc-2.34/build/libc_pic.a(rawmemchr-avx2-rtm.os)
                              /home/mritunjya/rooms/cryptography/crypto-hack/crackmes-one/glibc-2.34/build/libc_pic.a(rawmemchr.os) (__rawmemchr_avx2_rtm)
/home/mritunjya/rooms/cryptography/crypto-hack/crackmes-one/glibc-2.34/build/libc_pic.a(strchr-avx2-rtm.os)
                              /home/mritunjya/rooms/cryptography/crypto-hack/crackmes-one/glibc-2.34/build/libc_pic.a(strchr.os) (__strchr_avx2_rtm)
/home/mritunjya/rooms/cryptography/crypto-hack/crackmes-one/glibc-2.34/build/libc_pic.a(strcmp-avx2-rtm.os)
                              /home/mritunjya/rooms/cryptography/crypto-hack/crackmes-one/glibc-2.34/build/libc_pic.a(strcmp.os) (__strcmp_avx2_rtm)
/home/mritunjya/rooms/cryptography/crypto-hack/crackmes-one/glibc-2.34/build/libc_pic.a(stpcpy-avx2-rtm.os)
                              /home/mritunjya/rooms/cryptography/crypto-hack/crackmes-one/glibc-2.34/build/libc_pic.a(stpcpy.os) (__stpcpy_avx2_rtm)
/home/mritunjya/rooms/cryptography/crypto-hack/crackmes-one/glibc-2.34/build/libc_pic.a(strlen-avx2-rtm.os)
                              /home/mritunjya/rooms/cryptography/crypto-hack/crackmes-one/glibc-2.34/build/libc_pic.a(strlen.os) (__strlen_avx2_rtm)
/home/mritunjya/rooms/cryptography/crypto-hack/crackmes-one/glibc-2.34/build/libc_pic.a(strncmp-avx2-rtm.os)
                              /home/mritunjya/rooms/cryptography/crypto-hack/crackmes-one/glibc-2.34/build/libc_pic.a(strncmp.os) (__strncmp_avx2_rtm)
/home/mritunjya/rooms/cryptography/crypto-hack/crackmes-one/glibc-2.34/build/libc_pic.a(strnlen-avx2-rtm.os)
                              /home/mritunjya/rooms/cryptography/crypto-hack/crackmes-one/glibc-2.34/build/libc_pic.a(strnlen.os) (__strnlen_avx2_rtm)
/home/mritunjya/rooms/cryptography/crypto-hack/crackmes-one/glibc-2.34/build/libc_pic.a(memchr-evex.os)
                              /home/mritunjya/rooms/cryptography/crypto-hack/crackmes-one/glibc-2.34/build/libc_pic.a(memchr.os) (__memchr_evex)
/home/mritunjya/rooms/cryptography/crypto-hack/crackmes-one/glibc-2.34/build/libc_pic.a(memcmp-evex-movbe.os)
                              /home/mritunjya/rooms/cryptography/crypto-hack/crackmes-one/glibc-2.34/build/libc_pic.a(memcmp.os) (__memcmp_evex_movbe)
/home/mritunjya/rooms/cryptography/crypto-hack/crackmes-one/glibc-2.34/build/libc_pic.a(memmove-evex-unaligned-erms.os)
                              /home/mritunjya/rooms/cryptography/crypto-hack/crackmes-one/glibc-2.34/build/libc_pic.a(mempcpy.os) (__mempcpy_evex_unaligned)
/home/mritunjya/rooms/cryptography/crypto-hack/crackmes-one/glibc-2.34/build/libc_pic.a(memset-evex-unaligned-erms.os)
                              /home/mritunjya/rooms/cryptography/crypto-hack/crackmes-one/glibc-2.34/build/libc_pic.a(memset.os) (__memset_evex_unaligned)
/home/mritunjya/rooms/cryptography/crypto-hack/crackmes-one/glibc-2.34/build/libc_pic.a(rawmemchr-evex.os)
                              /home/mritunjya/rooms/cryptography/crypto-hack/crackmes-one/glibc-2.34/build/libc_pic.a(rawmemchr.os) (__rawmemchr_evex)
/home/mritunjya/rooms/cryptography/crypto-hack/crackmes-one/glibc-2.34/build/libc_pic.a(stpcpy-evex.os)
                              /home/mritunjya/rooms/cryptography/crypto-hack/crackmes-one/glibc-2.34/build/libc_pic.a(stpcpy.os) (__stpcpy_evex)
/home/mritunjya/rooms/cryptography/crypto-hack/crackmes-one/glibc-2.34/build/libc_pic.a(strchr-evex.os)
                              /home/mritunjya/rooms/cryptography/crypto-hack/crackmes-one/glibc-2.34/build/libc_pic.a(strchr.os) (__strchr_evex)
/home/mritunjya/rooms/cryptography/crypto-hack/crackmes-one/glibc-2.34/build/libc_pic.a(strcmp-evex.os)
                              /home/mritunjya/rooms/cryptography/crypto-hack/crackmes-one/glibc-2.34/build/libc_pic.a(strcmp.os) (__strcmp_evex)
/home/mritunjya/rooms/cryptography/crypto-hack/crackmes-one/glibc-2.34/build/libc_pic.a(strlen-evex.os)
                              /home/mritunjya/rooms/cryptography/crypto-hack/crackmes-one/glibc-2.34/build/libc_pic.a(strlen.os) (__strlen_evex)
/home/mritunjya/rooms/cryptography/crypto-hack/crackmes-one/glibc-2.34/build/libc_pic.a(strncmp-evex.os)
                              /home/mritunjya/rooms/cryptography/crypto-hack/crackmes-one/glibc-2.34/build/libc_pic.a(strncmp.os) (__strncmp_evex)
/home/mritunjya/rooms/cryptography/crypto-hack/crackmes-one/glibc-2.34/build/libc_pic.a(strnlen-evex.os)
                              /home/mritunjya/rooms/cryptography/crypto-hack/crackmes-one/glibc-2.34/build/libc_pic.a(strnlen.os) (__strnlen_evex)
/home/mritunjya/rooms/cryptography/crypto-hack/crackmes-one/glibc-2.34/build/libc_pic.a(memchr-evex-rtm.os)
                              /home/mritunjya/rooms/cryptography/crypto-hack/crackmes-one/glibc-2.34/build/libc_pic.a(memchr.os) (__memchr_evex_rtm)
/home/mritunjya/rooms/cryptography/crypto-hack/crackmes-one/glibc-2.34/build/libc_pic.a(rawmemchr-evex-rtm.os)
                              /home/mritunjya/rooms/cryptography/crypto-hack/crackmes-one/glibc-2.34/build/libc_pic.a(rawmemchr.os) (__rawmemchr_evex_rtm)
/home/mritunjya/rooms/cryptography/crypto-hack/crackmes-one/glibc-2.34/build/libc_pic.a(cacheinfo.os)
                              /home/mritunjya/rooms/cryptography/crypto-hack/crackmes-one/glibc-2.34/build/libc_pic.a(memcpy-ssse3-back.os) (__x86_data_cache_size)
/home/mritunjya/rooms/cryptography/crypto-hack/crackmes-one/glibc-2.34/build/libc_pic.a(closedir.os)
                              /home/mritunjya/rooms/cryptography/crypto-hack/crackmes-one/glibc-2.34/build/elf/dl-allobjs.os (__closedir)
/home/mritunjya/rooms/cryptography/crypto-hack/crackmes-one/glibc-2.34/build/libc_pic.a(rewinddir.os)
                              /home/mritunjya/rooms/cryptography/crypto-hack/crackmes-one/glibc-2.34/build/elf/dl-allobjs.os (__rewinddir)
/home/mritunjya/rooms/cryptography/crypto-hack/crackmes-one/glibc-2.34/build/libc_pic.a(readdir64.os)
                              /home/mritunjya/rooms/cryptography/crypto-hack/crackmes-one/glibc-2.34/build/elf/dl-allobjs.os (__readdir64)
/home/mritunjya/rooms/cryptography/crypto-hack/crackmes-one/glibc-2.34/build/libc_pic.a(fdopendir.os)
                              /home/mritunjya/rooms/cryptography/crypto-hack/crackmes-one/glibc-2.34/build/elf/dl-allobjs.os (__fdopendir)
/home/mritunjya/rooms/cryptography/crypto-hack/crackmes-one/glibc-2.34/build/libc_pic.a(uname.os)
                              /home/mritunjya/rooms/cryptography/crypto-hack/crackmes-one/glibc-2.34/build/elf/dl-allobjs.os (__uname)
/home/mritunjya/rooms/cryptography/crypto-hack/crackmes-one/glibc-2.34/build/libc_pic.a(_exit.os)
                              /home/mritunjya/rooms/cryptography/crypto-hack/crackmes-one/glibc-2.34/build/elf/dl-allobjs.os (__GI__exit)
/home/mritunjya/rooms/cryptography/crypto-hack/crackmes-one/glibc-2.34/build/libc_pic.a(getpid.os)
                              /home/mritunjya/rooms/cryptography/crypto-hack/crackmes-one/glibc-2.34/build/elf/dl-allobjs.os (__getpid)
/home/mritunjya/rooms/cryptography/crypto-hack/crackmes-one/glibc-2.34/build/libc_pic.a(environ.os)
                              /home/mritunjya/rooms/cryptography/crypto-hack/crackmes-one/glibc-2.34/build/elf/dl-allobjs.os (__environ)
/home/mritunjya/rooms/cryptography/crypto-hack/crackmes-one/glibc-2.34/build/libc_pic.a(stat64.os)
                              /home/mritunjya/rooms/cryptography/crypto-hack/crackmes-one/glibc-2.34/build/elf/dl-allobjs.os (__GI___stat64)
/home/mritunjya/rooms/cryptography/crypto-hack/crackmes-one/glibc-2.34/build/libc_pic.a(fstat64.os)
                              /home/mritunjya/rooms/cryptography/crypto-hack/crackmes-one/glibc-2.34/build/elf/dl-allobjs.os (__GI___fstat64)
/home/mritunjya/rooms/cryptography/crypto-hack/crackmes-one/glibc-2.34/build/libc_pic.a(lstat64.os)
                              /home/mritunjya/rooms/cryptography/crypto-hack/crackmes-one/glibc-2.34/build/elf/dl-allobjs.os (__GI___lstat64)
/home/mritunjya/rooms/cryptography/crypto-hack/crackmes-one/glibc-2.34/build/libc_pic.a(fstatat64.os)
                              /home/mritunjya/rooms/cryptography/crypto-hack/crackmes-one/glibc-2.34/build/elf/dl-allobjs.os (__GI___fstatat64)
/home/mritunjya/rooms/cryptography/crypto-hack/crackmes-one/glibc-2.34/build/libc_pic.a(openat64.os)
                              /home/mritunjya/rooms/cryptography/crypto-hack/crackmes-one/glibc-2.34/build/elf/dl-allobjs.os (__openat64)
/home/mritunjya/rooms/cryptography/crypto-hack/crackmes-one/glibc-2.34/build/libc_pic.a(lseek64.os)
                              /home/mritunjya/rooms/cryptography/crypto-hack/crackmes-one/glibc-2.34/build/libc_pic.a(rewinddir.os) (__GI___lseek)
/home/mritunjya/rooms/cryptography/crypto-hack/crackmes-one/glibc-2.34/build/libc_pic.a(access.os)
                              /home/mritunjya/rooms/cryptography/crypto-hack/crackmes-one/glibc-2.34/build/elf/dl-allobjs.os (__access)
/home/mritunjya/rooms/cryptography/crypto-hack/crackmes-one/glibc-2.34/build/libc_pic.a(close_nocancel.os)
                              /home/mritunjya/rooms/cryptography/crypto-hack/crackmes-one/glibc-2.34/build/elf/dl-allobjs.os (__GI___close_nocancel)
/home/mritunjya/rooms/cryptography/crypto-hack/crackmes-one/glibc-2.34/build/libc_pic.a(fcntl_nocancel.os)
                              /home/mritunjya/rooms/cryptography/crypto-hack/crackmes-one/glibc-2.34/build/elf/dl-allobjs.os (__GI___fcntl64_nocancel)
/home/mritunjya/rooms/cryptography/crypto-hack/crackmes-one/glibc-2.34/build/libc_pic.a(open64_nocancel.os)
                              /home/mritunjya/rooms/cryptography/crypto-hack/crackmes-one/glibc-2.34/build/elf/dl-allobjs.os (__GI___open64_nocancel)
/home/mritunjya/rooms/cryptography/crypto-hack/crackmes-one/glibc-2.34/build/libc_pic.a(read_nocancel.os)
                              /home/mritunjya/rooms/cryptography/crypto-hack/crackmes-one/glibc-2.34/build/elf/dl-allobjs.os (__GI___read_nocancel)
/home/mritunjya/rooms/cryptography/crypto-hack/crackmes-one/glibc-2.34/build/libc_pic.a(pread64_nocancel.os)
                              /home/mritunjya/rooms/cryptography/crypto-hack/crackmes-one/glibc-2.34/build/elf/dl-allobjs.os (__GI___pread64_nocancel)
/home/mritunjya/rooms/cryptography/crypto-hack/crackmes-one/glibc-2.34/build/libc_pic.a(write_nocancel.os)
                              /home/mritunjya/rooms/cryptography/crypto-hack/crackmes-one/glibc-2.34/build/elf/dl-allobjs.os (__GI___write_nocancel)
/home/mritunjya/rooms/cryptography/crypto-hack/crackmes-one/glibc-2.34/build/libc_pic.a(mmap64.os)
                              /home/mritunjya/rooms/cryptography/crypto-hack/crackmes-one/glibc-2.34/build/elf/dl-allobjs.os (__mmap)
/home/mritunjya/rooms/cryptography/crypto-hack/crackmes-one/glibc-2.34/build/libc_pic.a(munmap.os)
                              /home/mritunjya/rooms/cryptography/crypto-hack/crackmes-one/glibc-2.34/build/elf/dl-allobjs.os (__munmap)
/home/mritunjya/rooms/cryptography/crypto-hack/crackmes-one/glibc-2.34/build/libc_pic.a(mprotect.os)
                              /home/mritunjya/rooms/cryptography/crypto-hack/crackmes-one/glibc-2.34/build/elf/dl-allobjs.os (__mprotect)
/home/mritunjya/rooms/cryptography/crypto-hack/crackmes-one/glibc-2.34/build/libc_pic.a(profil.os)
                              /home/mritunjya/rooms/cryptography/crypto-hack/crackmes-one/glibc-2.34/build/elf/dl-allobjs.os (__profil)
/home/mritunjya/rooms/cryptography/crypto-hack/crackmes-one/glibc-2.34/build/libc_pic.a(prof-freq.os)
                              /home/mritunjya/rooms/cryptography/crypto-hack/crackmes-one/glibc-2.34/build/libc_pic.a(profil.os) (__GI___profile_frequency)
/home/mritunjya/rooms/cryptography/crypto-hack/crackmes-one/glibc-2.34/build/libc_pic.a(dl-addr-obj.os)
                              /home/mritunjya/rooms/cryptography/crypto-hack/crackmes-one/glibc-2.34/build/elf/dl-allobjs.os (_dl_addr_inside_object)
/home/mritunjya/rooms/cryptography/crypto-hack/crackmes-one/glibc-2.34/build/libc_pic.a(sigaction.os)
                              /home/mritunjya/rooms/cryptography/crypto-hack/crackmes-one/glibc-2.34/build/libc_pic.a(profil.os) (__GI___sigaction)
/home/mritunjya/rooms/cryptography/crypto-hack/crackmes-one/glibc-2.34/build/libc_pic.a(libc_sigaction.os)
                              /home/mritunjya/rooms/cryptography/crypto-hack/crackmes-one/glibc-2.34/build/libc_pic.a(sigaction.os) (__GI___libc_sigaction)
/home/mritunjya/rooms/cryptography/crypto-hack/crackmes-one/glibc-2.34/build/libc_pic.a(setitimer.os)
                              /home/mritunjya/rooms/cryptography/crypto-hack/crackmes-one/glibc-2.34/build/libc_pic.a(profil.os) (__setitimer)
/home/mritunjya/rooms/cryptography/crypto-hack/crackmes-one/glibc-2.34/build/libc_pic.a(getdents64.os)
                              /home/mritunjya/rooms/cryptography/crypto-hack/crackmes-one/glibc-2.34/build/libc_pic.a(readdir64.os) (__GI___getdents64)

Merging program properties

Removed property 0xc0000002 to merge /home/mritunjya/rooms/cryptography/crypto-hack/crackmes-one/glibc-2.34/build/elf/dl-allobjs.os (0x3) and /home/mritunjya/rooms/cryptography/crypto-hack/crackmes-one/glibc-2.34/build/elf/librtld.mapT.o (not found)
Removed property 0xc0000002 to merge /home/mritunjya/rooms/cryptography/crypto-hack/crackmes-one/glibc-2.34/build/elf/dl-allobjs.os (not found) and /home/mritunjya/rooms/cryptography/crypto-hack/crackmes-one/glibc-2.34/build/libc_pic.a(check_fds.os) (0x3)
Removed property 0xc0000002 to merge /home/mritunjya/rooms/cryptography/crypto-hack/crackmes-one/glibc-2.34/build/elf/dl-allobjs.os (not found) and /home/mritunjya/rooms/cryptography/crypto-hack/crackmes-one/glibc-2.34/build/libc_pic.a(errno.os) (0x3)
Removed property 0xc0000002 to merge /home/mritunjya/rooms/cryptography/crypto-hack/crackmes-one/glibc-2.34/build/elf/dl-allobjs.os (not found) and /home/mritunjya/rooms/cryptography/crypto-hack/crackmes-one/glibc-2.34/build/libc_pic.a(setjmp.os) (0x3)
Removed property 0xc0000002 to merge /home/mritunjya/rooms/cryptography/crypto-hack/crackmes-one/glibc-2.34/build/elf/dl-allobjs.os (not found) and /home/mritunjya/rooms/cryptography/crypto-hack/crackmes-one/glibc-2.34/build/libc_pic.a(__longjmp.os) (0x3)
Removed property 0xc0000002 to merge /home/mritunjya/rooms/cryptography/crypto-hack/crackmes-one/glibc-2.34/build/elf/dl-allobjs.os (not found) and /home/mritunjya/rooms/cryptography/crypto-hack/crackmes-one/glibc-2.34/build/libc_pic.a(lowlevellock.os) (0x3)
Removed property 0xc0000002 to merge /home/mritunjya/rooms/cryptography/crypto-hack/crackmes-one/glibc-2.34/build/elf/dl-allobjs.os (not found) and /home/mritunjya/rooms/cryptography/crypto-hack/crackmes-one/glibc-2.34/build/libc_pic.a(scratch_buffer_set_array_size.os) (0x3)
Removed property 0xc0000002 to merge /home/mritunjya/rooms/cryptography/crypto-hack/crackmes-one/glibc-2.34/build/elf/dl-allobjs.os (not found) and /home/mritunjya/rooms/cryptography/crypto-hack/crackmes-one/glibc-2.34/build/libc_pic.a(strchr.os) (0x3)
Removed property 0xc0000002 to merge /home/mritunjya/rooms/cryptography/crypto-hack/crackmes-one/glibc-2.34/build/elf/dl-allobjs.os (not found) and /home/mritunjya/rooms/cryptography/crypto-hack/crackmes-one/glibc-2.34/build/libc_pic.a(strcmp.os) (0x3)
Removed property 0xc0000002 to merge /home/mritunjya/rooms/cryptography/crypto-hack/crackmes-one/glibc-2.34/build/elf/dl-allobjs.os (not found) and /home/mritunjya/rooms/cryptography/crypto-hack/crackmes-one/glibc-2.34/build/libc_pic.a(strcspn.os) (0x3)
Removed property 0xc0000002 to merge /home/mritunjya/rooms/cryptography/crypto-hack/crackmes-one/glibc-2.34/build/elf/dl-allobjs.os (not found) and /home/mritunjya/rooms/cryptography/crypto-hack/crackmes-one/glibc-2.34/build/libc_pic.a(strdup.os) (0x3)
Removed property 0xc0000002 to merge /home/mritunjya/rooms/cryptography/crypto-hack/crackmes-one/glibc-2.34/build/elf/dl-allobjs.os (not found) and /home/mritunjya/rooms/cryptography/crypto-hack/crackmes-one/glibc-2.34/build/libc_pic.a(strlen.os) (0x3)
Removed property 0xc0000002 to merge /home/mritunjya/rooms/cryptography/crypto-hack/crackmes-one/glibc-2.34/build/elf/dl-allobjs.os (not found) and /home/mritunjya/rooms/cryptography/crypto-hack/crackmes-one/glibc-2.34/build/libc_pic.a(strnlen.os) (0x3)
Removed property 0xc0000002 to merge /home/mritunjya/rooms/cryptography/crypto-hack/crackmes-one/glibc-2.34/build/elf/dl-allobjs.os (not found) and /home/mritunjya/rooms/cryptography/crypto-hack/crackmes-one/glibc-2.34/build/libc_pic.a(strncmp.os) (0x3)
Removed property 0xc0000002 to merge /home/mritunjya/rooms/cryptography/crypto-hack/crackmes-one/glibc-2.34/build/elf/dl-allobjs.os (not found) and /home/mritunjya/rooms/cryptography/crypto-hack/crackmes-one/glibc-2.34/build/libc_pic.a(memchr.os) (0x3)
Removed property 0xc0000002 to merge /home/mritunjya/rooms/cryptography/crypto-hack/crackmes-one/glibc-2.34/build/elf/dl-allobjs.os (not found) and /home/mritunjya/rooms/cryptography/crypto-hack/crackmes-one/glibc-2.34/build/libc_pic.a(memcmp.os) (0x3)
Removed property 0xc0000002 to merge /home/mritunjya/rooms/cryptography/crypto-hack/crackmes-one/glibc-2.34/build/elf/dl-allobjs.os (not found) and /home/mritunjya/rooms/cryptography/crypto-hack/crackmes-one/glibc-2.34/build/libc_pic.a(memmove.os) (0x3)
Removed property 0xc0000002 to merge /home/mritunjya/rooms/cryptography/crypto-hack/crackmes-one/glibc-2.34/build/elf/dl-allobjs.os (not found) and /home/mritunjya/rooms/cryptography/crypto-hack/crackmes-one/glibc-2.34/build/libc_pic.a(memset.os) (0x3)
Removed property 0xc0000002 to merge /home/mritunjya/rooms/cryptography/crypto-hack/crackmes-one/glibc-2.34/build/elf/dl-allobjs.os (not found) and /home/mritunjya/rooms/cryptography/crypto-hack/crackmes-one/glibc-2.34/build/libc_pic.a(mempcpy.os) (0x3)
Removed property 0xc0000002 to merge /home/mritunjya/rooms/cryptography/crypto-hack/crackmes-one/glibc-2.34/build/elf/dl-allobjs.os (not found) and /home/mritunjya/rooms/cryptography/crypto-hack/crackmes-one/glibc-2.34/build/libc_pic.a(stpcpy.os) (0x3)
Removed property 0xc0000002 to merge /home/mritunjya/rooms/cryptography/crypto-hack/crackmes-one/glibc-2.34/build/elf/dl-allobjs.os (not found) and /home/mritunjya/rooms/cryptography/crypto-hack/crackmes-one/glibc-2.34/build/libc_pic.a(memcpy.os) (0x3)
Removed property 0xc0000002 to merge /home/mritunjya/rooms/cryptography/crypto-hack/crackmes-one/glibc-2.34/build/elf/dl-allobjs.os (not found) and /home/mritunjya/rooms/cryptography/crypto-hack/crackmes-one/glibc-2.34/build/libc_pic.a(rawmemchr.os) (0x3)
Removed property 0xc0000002 to merge /home/mritunjya/rooms/cryptography/crypto-hack/crackmes-one/glibc-2.34/build/elf/dl-allobjs.os (not found) and /home/mritunjya/rooms/cryptography/crypto-hack/crackmes-one/glibc-2.34/build/libc_pic.a(strcmp-sse2.os) (0x3)
Removed property 0xc0000002 to merge /home/mritunjya/rooms/cryptography/crypto-hack/crackmes-one/glibc-2.34/build/elf/dl-allobjs.os (not found) and /home/mritunjya/rooms/cryptography/crypto-hack/crackmes-one/glibc-2.34/build/libc_pic.a(strcmp-sse2-unaligned.os) (0x3)
Removed property 0xc0000002 to merge /home/mritunjya/rooms/cryptography/crypto-hack/crackmes-one/glibc-2.34/build/elf/dl-allobjs.os (not found) and /home/mritunjya/rooms/cryptography/crypto-hack/crackmes-one/glibc-2.34/build/libc_pic.a(strcmp-ssse3.os) (0x3)
Removed property 0xc0000002 to merge /home/mritunjya/rooms/cryptography/crypto-hack/crackmes-one/glibc-2.34/build/elf/dl-allobjs.os (not found) and /home/mritunjya/rooms/cryptography/crypto-hack/crackmes-one/glibc-2.34/build/libc_pic.a(strcmp-avx2.os) (0x3)
Removed property 0xc0000002 to merge /home/mritunjya/rooms/cryptography/crypto-hack/crackmes-one/glibc-2.34/build/elf/dl-allobjs.os (not found) and /home/mritunjya/rooms/cryptography/crypto-hack/crackmes-one/glibc-2.34/build/libc_pic.a(strncmp-sse2.os) (0x3)
Removed property 0xc0000002 to merge /home/mritunjya/rooms/cryptography/crypto-hack/crackmes-one/glibc-2.34/build/elf/dl-allobjs.os (not found) and /home/mritunjya/rooms/cryptography/crypto-hack/crackmes-one/glibc-2.34/build/libc_pic.a(strncmp-ssse3.os) (0x3)
Removed property 0xc0000002 to merge /home/mritunjya/rooms/cryptography/crypto-hack/crackmes-one/glibc-2.34/build/elf/dl-allobjs.os (not found) and /home/mritunjya/rooms/cryptography/crypto-hack/crackmes-one/glibc-2.34/build/libc_pic.a(strncmp-sse4_2.os) (0x3)
Removed property 0xc0000002 to merge /home/mritunjya/rooms/cryptography/crypto-hack/crackmes-one/glibc-2.34/build/elf/dl-allobjs.os (not found) and /home/mritunjya/rooms/cryptography/crypto-hack/crackmes-one/glibc-2.34/build/libc_pic.a(strncmp-avx2.os) (0x3)
Removed property 0xc0000002 to merge /home/mritunjya/rooms/cryptography/crypto-hack/crackmes-one/glibc-2.34/build/elf/dl-allobjs.os (not found) and /home/mritunjya/rooms/cryptography/crypto-hack/crackmes-one/glibc-2.34/build/libc_pic.a(memchr-sse2.os) (0x3)
Removed property 0xc0000002 to merge /home/mritunjya/rooms/cryptography/crypto-hack/crackmes-one/glibc-2.34/build/elf/dl-allobjs.os (not found) and /home/mritunjya/rooms/cryptography/crypto-hack/crackmes-one/glibc-2.34/build/libc_pic.a(rawmemchr-sse2.os) (0x3)
Removed property 0xc0000002 to merge /home/mritunjya/rooms/cryptography/crypto-hack/crackmes-one/glibc-2.34/build/elf/dl-allobjs.os (not found) and /home/mritunjya/rooms/cryptography/crypto-hack/crackmes-one/glibc-2.34/build/libc_pic.a(memchr-avx2.os) (0x3)
Removed property 0xc0000002 to merge /home/mritunjya/rooms/cryptography/crypto-hack/crackmes-one/glibc-2.34/build/elf/dl-allobjs.os (not found) and /home/mritunjya/rooms/cryptography/crypto-hack/crackmes-one/glibc-2.34/build/libc_pic.a(rawmemchr-avx2.os) (0x3)
Removed property 0xc0000002 to merge /home/mritunjya/rooms/cryptography/crypto-hack/crackmes-one/glibc-2.34/build/elf/dl-allobjs.os (not found) and /home/mritunjya/rooms/cryptography/crypto-hack/crackmes-one/glibc-2.34/build/libc_pic.a(memcmp-sse2.os) (0x3)
Removed property 0xc0000002 to merge /home/mritunjya/rooms/cryptography/crypto-hack/crackmes-one/glibc-2.34/build/elf/dl-allobjs.os (not found) and /home/mritunjya/rooms/cryptography/crypto-hack/crackmes-one/glibc-2.34/build/libc_pic.a(memcmp-avx2-movbe.os) (0x3)
Removed property 0xc0000002 to merge /home/mritunjya/rooms/cryptography/crypto-hack/crackmes-one/glibc-2.34/build/elf/dl-allobjs.os (not found) and /home/mritunjya/rooms/cryptography/crypto-hack/crackmes-one/glibc-2.34/build/libc_pic.a(memcmp-sse4.os) (0x3)
Removed property 0xc0000002 to merge /home/mritunjya/rooms/cryptography/crypto-hack/crackmes-one/glibc-2.34/build/elf/dl-allobjs.os (not found) and /home/mritunjya/rooms/cryptography/crypto-hack/crackmes-one/glibc-2.34/build/libc_pic.a(memcpy-ssse3.os) (0x3)
Removed property 0xc0000002 to merge /home/mritunjya/rooms/cryptography/crypto-hack/crackmes-one/glibc-2.34/build/elf/dl-allobjs.os (not found) and /home/mritunjya/rooms/cryptography/crypto-hack/crackmes-one/glibc-2.34/build/libc_pic.a(memmove-ssse3.os) (0x3)
Removed property 0xc0000002 to merge /home/mritunjya/rooms/cryptography/crypto-hack/crackmes-one/glibc-2.34/build/elf/dl-allobjs.os (not found) and /home/mritunjya/rooms/cryptography/crypto-hack/crackmes-one/glibc-2.34/build/libc_pic.a(memcpy-ssse3-back.os) (0x3)
Removed property 0xc0000002 to merge /home/mritunjya/rooms/cryptography/crypto-hack/crackmes-one/glibc-2.34/build/elf/dl-allobjs.os (not found) and /home/mritunjya/rooms/cryptography/crypto-hack/crackmes-one/glibc-2.34/build/libc_pic.a(memmove-ssse3-back.os) (0x3)
Removed property 0xc0000002 to merge /home/mritunjya/rooms/cryptography/crypto-hack/crackmes-one/glibc-2.34/build/elf/dl-allobjs.os (not found) and /home/mritunjya/rooms/cryptography/crypto-hack/crackmes-one/glibc-2.34/build/libc_pic.a(memmove-avx512-no-vzeroupper.os) (0x3)
Removed property 0xc0000002 to merge /home/mritunjya/rooms/cryptography/crypto-hack/crackmes-one/glibc-2.34/build/elf/dl-allobjs.os (not found) and /home/mritunjya/rooms/cryptography/crypto-hack/crackmes-one/glibc-2.34/build/libc_pic.a(strchr-sse2.os) (0x3)
Removed property 0xc0000002 to merge /home/mritunjya/rooms/cryptography/crypto-hack/crackmes-one/glibc-2.34/build/elf/dl-allobjs.os (not found) and /home/mritunjya/rooms/cryptography/crypto-hack/crackmes-one/glibc-2.34/build/libc_pic.a(strchr-avx2.os) (0x3)
Removed property 0xc0000002 to merge /home/mritunjya/rooms/cryptography/crypto-hack/crackmes-one/glibc-2.34/build/elf/dl-allobjs.os (not found) and /home/mritunjya/rooms/cryptography/crypto-hack/crackmes-one/glibc-2.34/build/libc_pic.a(strlen-sse2.os) (0x3)
Removed property 0xc0000002 to merge /home/mritunjya/rooms/cryptography/crypto-hack/crackmes-one/glibc-2.34/build/elf/dl-allobjs.os (not found) and /home/mritunjya/rooms/cryptography/crypto-hack/crackmes-one/glibc-2.34/build/libc_pic.a(strnlen-sse2.os) (0x3)
Removed property 0xc0000002 to merge /home/mritunjya/rooms/cryptography/crypto-hack/crackmes-one/glibc-2.34/build/elf/dl-allobjs.os (not found) and /home/mritunjya/rooms/cryptography/crypto-hack/crackmes-one/glibc-2.34/build/libc_pic.a(strlen-avx2.os) (0x3)
Removed property 0xc0000002 to merge /home/mritunjya/rooms/cryptography/crypto-hack/crackmes-one/glibc-2.34/build/elf/dl-allobjs.os (not found) and /home/mritunjya/rooms/cryptography/crypto-hack/crackmes-one/glibc-2.34/build/libc_pic.a(strnlen-avx2.os) (0x3)
Removed property 0xc0000002 to merge /home/mritunjya/rooms/cryptography/crypto-hack/crackmes-one/glibc-2.34/build/elf/dl-allobjs.os (not found) and /home/mritunjya/rooms/cryptography/crypto-hack/crackmes-one/glibc-2.34/build/libc_pic.a(stpcpy-sse2.os) (0x3)
Removed property 0xc0000002 to merge /home/mritunjya/rooms/cryptography/crypto-hack/crackmes-one/glibc-2.34/build/elf/dl-allobjs.os (not found) and /home/mritunjya/rooms/cryptography/crypto-hack/crackmes-one/glibc-2.34/build/libc_pic.a(stpcpy-ssse3.os) (0x3)
Removed property 0xc0000002 to merge /home/mritunjya/rooms/cryptography/crypto-hack/crackmes-one/glibc-2.34/build/elf/dl-allobjs.os (not found) and /home/mritunjya/rooms/cryptography/crypto-hack/crackmes-one/glibc-2.34/build/libc_pic.a(stpcpy-sse2-unaligned.os) (0x3)
Removed property 0xc0000002 to merge /home/mritunjya/rooms/cryptography/crypto-hack/crackmes-one/glibc-2.34/build/elf/dl-allobjs.os (not found) and /home/mritunjya/rooms/cryptography/crypto-hack/crackmes-one/glibc-2.34/build/libc_pic.a(stpcpy-avx2.os) (0x3)
Removed property 0xc0000002 to merge /home/mritunjya/rooms/cryptography/crypto-hack/crackmes-one/glibc-2.34/build/elf/dl-allobjs.os (not found) and /home/mritunjya/rooms/cryptography/crypto-hack/crackmes-one/glibc-2.34/build/libc_pic.a(strchr-sse2-no-bsf.os) (0x3)
Removed property 0xc0000002 to merge /home/mritunjya/rooms/cryptography/crypto-hack/crackmes-one/glibc-2.34/build/elf/dl-allobjs.os (not found) and /home/mritunjya/rooms/cryptography/crypto-hack/crackmes-one/glibc-2.34/build/libc_pic.a(memcmp-ssse3.os) (0x3)
Removed property 0xc0000002 to merge /home/mritunjya/rooms/cryptography/crypto-hack/crackmes-one/glibc-2.34/build/elf/dl-allobjs.os (not found) and /home/mritunjya/rooms/cryptography/crypto-hack/crackmes-one/glibc-2.34/build/libc_pic.a(strcspn-sse2.os) (0x3)
Removed property 0xc0000002 to merge /home/mritunjya/rooms/cryptography/crypto-hack/crackmes-one/glibc-2.34/build/elf/dl-allobjs.os (not found) and /home/mritunjya/rooms/cryptography/crypto-hack/crackmes-one/glibc-2.34/build/libc_pic.a(strcspn-c.os) (0x3)
Removed property 0xc0000002 to merge /home/mritunjya/rooms/cryptography/crypto-hack/crackmes-one/glibc-2.34/build/elf/dl-allobjs.os (not found) and /home/mritunjya/rooms/cryptography/crypto-hack/crackmes-one/glibc-2.34/build/libc_pic.a(varshift.os) (0x3)
Removed property 0xc0000002 to merge /home/mritunjya/rooms/cryptography/crypto-hack/crackmes-one/glibc-2.34/build/elf/dl-allobjs.os (not found) and /home/mritunjya/rooms/cryptography/crypto-hack/crackmes-one/glibc-2.34/build/libc_pic.a(memset-avx512-no-vzeroupper.os) (0x3)
Removed property 0xc0000002 to merge /home/mritunjya/rooms/cryptography/crypto-hack/crackmes-one/glibc-2.34/build/elf/dl-allobjs.os (not found) and /home/mritunjya/rooms/cryptography/crypto-hack/crackmes-one/glibc-2.34/build/libc_pic.a(memmove-sse2-unaligned-erms.os) (0x3)
Removed property 0xc0000002 to merge /home/mritunjya/rooms/cryptography/crypto-hack/crackmes-one/glibc-2.34/build/elf/dl-allobjs.os (not found) and /home/mritunjya/rooms/cryptography/crypto-hack/crackmes-one/glibc-2.34/build/libc_pic.a(memmove-avx-unaligned-erms.os) (0x3)
Removed property 0xc0000002 to merge /home/mritunjya/rooms/cryptography/crypto-hack/crackmes-one/glibc-2.34/build/elf/dl-allobjs.os (not found) and /home/mritunjya/rooms/cryptography/crypto-hack/crackmes-one/glibc-2.34/build/libc_pic.a(memmove-avx512-unaligned-erms.os) (0x3)
Removed property 0xc0000002 to merge /home/mritunjya/rooms/cryptography/crypto-hack/crackmes-one/glibc-2.34/build/elf/dl-allobjs.os (not found) and /home/mritunjya/rooms/cryptography/crypto-hack/crackmes-one/glibc-2.34/build/libc_pic.a(memset-sse2-unaligned-erms.os) (0x3)
Removed property 0xc0000002 to merge /home/mritunjya/rooms/cryptography/crypto-hack/crackmes-one/glibc-2.34/build/elf/dl-allobjs.os (not found) and /home/mritunjya/rooms/cryptography/crypto-hack/crackmes-one/glibc-2.34/build/libc_pic.a(memset-avx2-unaligned-erms.os) (0x3)
Removed property 0xc0000002 to merge /home/mritunjya/rooms/cryptography/crypto-hack/crackmes-one/glibc-2.34/build/elf/dl-allobjs.os (not found) and /home/mritunjya/rooms/cryptography/crypto-hack/crackmes-one/glibc-2.34/build/libc_pic.a(memset-avx512-unaligned-erms.os) (0x3)
Removed property 0xc0000002 to merge /home/mritunjya/rooms/cryptography/crypto-hack/crackmes-one/glibc-2.34/build/elf/dl-allobjs.os (not found) and /home/mritunjya/rooms/cryptography/crypto-hack/crackmes-one/glibc-2.34/build/libc_pic.a(memchr-avx2-rtm.os) (0x3)
Removed property 0xc0000002 to merge /home/mritunjya/rooms/cryptography/crypto-hack/crackmes-one/glibc-2.34/build/elf/dl-allobjs.os (not found) and /home/mritunjya/rooms/cryptography/crypto-hack/crackmes-one/glibc-2.34/build/libc_pic.a(memcmp-avx2-movbe-rtm.os) (0x3)
Removed property 0xc0000002 to merge /home/mritunjya/rooms/cryptography/crypto-hack/crackmes-one/glibc-2.34/build/elf/dl-allobjs.os (not found) and /home/mritunjya/rooms/cryptography/crypto-hack/crackmes-one/glibc-2.34/build/libc_pic.a(memmove-avx-unaligned-erms-rtm.os) (0x3)
Removed property 0xc0000002 to merge /home/mritunjya/rooms/cryptography/crypto-hack/crackmes-one/glibc-2.34/build/elf/dl-allobjs.os (not found) and /home/mritunjya/rooms/cryptography/crypto-hack/crackmes-one/glibc-2.34/build/libc_pic.a(memset-avx2-unaligned-erms-rtm.os) (0x3)
Removed property 0xc0000002 to merge /home/mritunjya/rooms/cryptography/crypto-hack/crackmes-one/glibc-2.34/build/elf/dl-allobjs.os (not found) and /home/mritunjya/rooms/cryptography/crypto-hack/crackmes-one/glibc-2.34/build/libc_pic.a(rawmemchr-avx2-rtm.os) (0x3)
Removed property 0xc0000002 to merge /home/mritunjya/rooms/cryptography/crypto-hack/crackmes-one/glibc-2.34/build/elf/dl-allobjs.os (not found) and /home/mritunjya/rooms/cryptography/crypto-hack/crackmes-one/glibc-2.34/build/libc_pic.a(strchr-avx2-rtm.os) (0x3)
Removed property 0xc0000002 to merge /home/mritunjya/rooms/cryptography/crypto-hack/crackmes-one/glibc-2.34/build/elf/dl-allobjs.os (not found) and /home/mritunjya/rooms/cryptography/crypto-hack/crackmes-one/glibc-2.34/build/libc_pic.a(strcmp-avx2-rtm.os) (0x3)
Removed property 0xc0000002 to merge /home/mritunjya/rooms/cryptography/crypto-hack/crackmes-one/glibc-2.34/build/elf/dl-allobjs.os (not found) and /home/mritunjya/rooms/cryptography/crypto-hack/crackmes-one/glibc-2.34/build/libc_pic.a(stpcpy-avx2-rtm.os) (0x3)
Removed property 0xc0000002 to merge /home/mritunjya/rooms/cryptography/crypto-hack/crackmes-one/glibc-2.34/build/elf/dl-allobjs.os (not found) and /home/mritunjya/rooms/cryptography/crypto-hack/crackmes-one/glibc-2.34/build/libc_pic.a(strlen-avx2-rtm.os) (0x3)
Removed property 0xc0000002 to merge /home/mritunjya/rooms/cryptography/crypto-hack/crackmes-one/glibc-2.34/build/elf/dl-allobjs.os (not found) and /home/mritunjya/rooms/cryptography/crypto-hack/crackmes-one/glibc-2.34/build/libc_pic.a(strncmp-avx2-rtm.os) (0x3)
Removed property 0xc0000002 to merge /home/mritunjya/rooms/cryptography/crypto-hack/crackmes-one/glibc-2.34/build/elf/dl-allobjs.os (not found) and /home/mritunjya/rooms/cryptography/crypto-hack/crackmes-one/glibc-2.34/build/libc_pic.a(strnlen-avx2-rtm.os) (0x3)
Removed property 0xc0000002 to merge /home/mritunjya/rooms/cryptography/crypto-hack/crackmes-one/glibc-2.34/build/elf/dl-allobjs.os (not found) and /home/mritunjya/rooms/cryptography/crypto-hack/crackmes-one/glibc-2.34/build/libc_pic.a(memchr-evex.os) (0x3)
Removed property 0xc0000002 to merge /home/mritunjya/rooms/cryptography/crypto-hack/crackmes-one/glibc-2.34/build/elf/dl-allobjs.os (not found) and /home/mritunjya/rooms/cryptography/crypto-hack/crackmes-one/glibc-2.34/build/libc_pic.a(memcmp-evex-movbe.os) (0x3)
Removed property 0xc0000002 to merge /home/mritunjya/rooms/cryptography/crypto-hack/crackmes-one/glibc-2.34/build/elf/dl-allobjs.os (not found) and /home/mritunjya/rooms/cryptography/crypto-hack/crackmes-one/glibc-2.34/build/libc_pic.a(memmove-evex-unaligned-erms.os) (0x3)
Removed property 0xc0000002 to merge /home/mritunjya/rooms/cryptography/crypto-hack/crackmes-one/glibc-2.34/build/elf/dl-allobjs.os (not found) and /home/mritunjya/rooms/cryptography/crypto-hack/crackmes-one/glibc-2.34/build/libc_pic.a(memset-evex-unaligned-erms.os) (0x3)
Removed property 0xc0000002 to merge /home/mritunjya/rooms/cryptography/crypto-hack/crackmes-one/glibc-2.34/build/elf/dl-allobjs.os (not found) and /home/mritunjya/rooms/cryptography/crypto-hack/crackmes-one/glibc-2.34/build/libc_pic.a(rawmemchr-evex.os) (0x3)
Removed property 0xc0000002 to merge /home/mritunjya/rooms/cryptography/crypto-hack/crackmes-one/glibc-2.34/build/elf/dl-allobjs.os (not found) and /home/mritunjya/rooms/cryptography/crypto-hack/crackmes-one/glibc-2.34/build/libc_pic.a(stpcpy-evex.os) (0x3)
Removed property 0xc0000002 to merge /home/mritunjya/rooms/cryptography/crypto-hack/crackmes-one/glibc-2.34/build/elf/dl-allobjs.os (not found) and /home/mritunjya/rooms/cryptography/crypto-hack/crackmes-one/glibc-2.34/build/libc_pic.a(strchr-evex.os) (0x3)
Removed property 0xc0000002 to merge /home/mritunjya/rooms/cryptography/crypto-hack/crackmes-one/glibc-2.34/build/elf/dl-allobjs.os (not found) and /home/mritunjya/rooms/cryptography/crypto-hack/crackmes-one/glibc-2.34/build/libc_pic.a(strcmp-evex.os) (0x3)
Removed property 0xc0000002 to merge /home/mritunjya/rooms/cryptography/crypto-hack/crackmes-one/glibc-2.34/build/elf/dl-allobjs.os (not found) and /home/mritunjya/rooms/cryptography/crypto-hack/crackmes-one/glibc-2.34/build/libc_pic.a(strlen-evex.os) (0x3)
Removed property 0xc0000002 to merge /home/mritunjya/rooms/cryptography/crypto-hack/crackmes-one/glibc-2.34/build/elf/dl-allobjs.os (not found) and /home/mritunjya/rooms/cryptography/crypto-hack/crackmes-one/glibc-2.34/build/libc_pic.a(strncmp-evex.os) (0x3)
Removed property 0xc0000002 to merge /home/mritunjya/rooms/cryptography/crypto-hack/crackmes-one/glibc-2.34/build/elf/dl-allobjs.os (not found) and /home/mritunjya/rooms/cryptography/crypto-hack/crackmes-one/glibc-2.34/build/libc_pic.a(strnlen-evex.os) (0x3)
Removed property 0xc0000002 to merge /home/mritunjya/rooms/cryptography/crypto-hack/crackmes-one/glibc-2.34/build/elf/dl-allobjs.os (not found) and /home/mritunjya/rooms/cryptography/crypto-hack/crackmes-one/glibc-2.34/build/libc_pic.a(memchr-evex-rtm.os) (0x3)
Removed property 0xc0000002 to merge /home/mritunjya/rooms/cryptography/crypto-hack/crackmes-one/glibc-2.34/build/elf/dl-allobjs.os (not found) and /home/mritunjya/rooms/cryptography/crypto-hack/crackmes-one/glibc-2.34/build/libc_pic.a(rawmemchr-evex-rtm.os) (0x3)
Removed property 0xc0000002 to merge /home/mritunjya/rooms/cryptography/crypto-hack/crackmes-one/glibc-2.34/build/elf/dl-allobjs.os (not found) and /home/mritunjya/rooms/cryptography/crypto-hack/crackmes-one/glibc-2.34/build/libc_pic.a(cacheinfo.os) (0x3)
Removed property 0xc0000002 to merge /home/mritunjya/rooms/cryptography/crypto-hack/crackmes-one/glibc-2.34/build/elf/dl-allobjs.os (not found) and /home/mritunjya/rooms/cryptography/crypto-hack/crackmes-one/glibc-2.34/build/libc_pic.a(closedir.os) (0x3)
Removed property 0xc0000002 to merge /home/mritunjya/rooms/cryptography/crypto-hack/crackmes-one/glibc-2.34/build/elf/dl-allobjs.os (not found) and /home/mritunjya/rooms/cryptography/crypto-hack/crackmes-one/glibc-2.34/build/libc_pic.a(rewinddir.os) (0x3)
Removed property 0xc0000002 to merge /home/mritunjya/rooms/cryptography/crypto-hack/crackmes-one/glibc-2.34/build/elf/dl-allobjs.os (not found) and /home/mritunjya/rooms/cryptography/crypto-hack/crackmes-one/glibc-2.34/build/libc_pic.a(readdir64.os) (0x3)
Removed property 0xc0000002 to merge /home/mritunjya/rooms/cryptography/crypto-hack/crackmes-one/glibc-2.34/build/elf/dl-allobjs.os (not found) and /home/mritunjya/rooms/cryptography/crypto-hack/crackmes-one/glibc-2.34/build/libc_pic.a(fdopendir.os) (0x3)
Removed property 0xc0000002 to merge /home/mritunjya/rooms/cryptography/crypto-hack/crackmes-one/glibc-2.34/build/elf/dl-allobjs.os (not found) and /home/mritunjya/rooms/cryptography/crypto-hack/crackmes-one/glibc-2.34/build/libc_pic.a(uname.os) (0x3)
Removed property 0xc0000002 to merge /home/mritunjya/rooms/cryptography/crypto-hack/crackmes-one/glibc-2.34/build/elf/dl-allobjs.os (not found) and /home/mritunjya/rooms/cryptography/crypto-hack/crackmes-one/glibc-2.34/build/libc_pic.a(_exit.os) (0x3)
Removed property 0xc0000002 to merge /home/mritunjya/rooms/cryptography/crypto-hack/crackmes-one/glibc-2.34/build/elf/dl-allobjs.os (not found) and /home/mritunjya/rooms/cryptography/crypto-hack/crackmes-one/glibc-2.34/build/libc_pic.a(getpid.os) (0x3)
Removed property 0xc0000002 to merge /home/mritunjya/rooms/cryptography/crypto-hack/crackmes-one/glibc-2.34/build/elf/dl-allobjs.os (not found) and /home/mritunjya/rooms/cryptography/crypto-hack/crackmes-one/glibc-2.34/build/libc_pic.a(environ.os) (0x3)
Removed property 0xc0000002 to merge /home/mritunjya/rooms/cryptography/crypto-hack/crackmes-one/glibc-2.34/build/elf/dl-allobjs.os (not found) and /home/mritunjya/rooms/cryptography/crypto-hack/crackmes-one/glibc-2.34/build/libc_pic.a(stat64.os) (0x3)
Removed property 0xc0000002 to merge /home/mritunjya/rooms/cryptography/crypto-hack/crackmes-one/glibc-2.34/build/elf/dl-allobjs.os (not found) and /home/mritunjya/rooms/cryptography/crypto-hack/crackmes-one/glibc-2.34/build/libc_pic.a(fstat64.os) (0x3)
Removed property 0xc0000002 to merge /home/mritunjya/rooms/cryptography/crypto-hack/crackmes-one/glibc-2.34/build/elf/dl-allobjs.os (not found) and /home/mritunjya/rooms/cryptography/crypto-hack/crackmes-one/glibc-2.34/build/libc_pic.a(lstat64.os) (0x3)
Removed property 0xc0000002 to merge /home/mritunjya/rooms/cryptography/crypto-hack/crackmes-one/glibc-2.34/build/elf/dl-allobjs.os (not found) and /home/mritunjya/rooms/cryptography/crypto-hack/crackmes-one/glibc-2.34/build/libc_pic.a(fstatat64.os) (0x3)
Removed property 0xc0000002 to merge /home/mritunjya/rooms/cryptography/crypto-hack/crackmes-one/glibc-2.34/build/elf/dl-allobjs.os (not found) and /home/mritunjya/rooms/cryptography/crypto-hack/crackmes-one/glibc-2.34/build/libc_pic.a(openat64.os) (0x3)
Removed property 0xc0000002 to merge /home/mritunjya/rooms/cryptography/crypto-hack/crackmes-one/glibc-2.34/build/elf/dl-allobjs.os (not found) and /home/mritunjya/rooms/cryptography/crypto-hack/crackmes-one/glibc-2.34/build/libc_pic.a(lseek64.os) (0x3)
Removed property 0xc0000002 to merge /home/mritunjya/rooms/cryptography/crypto-hack/crackmes-one/glibc-2.34/build/elf/dl-allobjs.os (not found) and /home/mritunjya/rooms/cryptography/crypto-hack/crackmes-one/glibc-2.34/build/libc_pic.a(access.os) (0x3)
Removed property 0xc0000002 to merge /home/mritunjya/rooms/cryptography/crypto-hack/crackmes-one/glibc-2.34/build/elf/dl-allobjs.os (not found) and /home/mritunjya/rooms/cryptography/crypto-hack/crackmes-one/glibc-2.34/build/libc_pic.a(close_nocancel.os) (0x3)
Removed property 0xc0000002 to merge /home/mritunjya/rooms/cryptography/crypto-hack/crackmes-one/glibc-2.34/build/elf/dl-allobjs.os (not found) and /home/mritunjya/rooms/cryptography/crypto-hack/crackmes-one/glibc-2.34/build/libc_pic.a(fcntl_nocancel.os) (0x3)
Removed property 0xc0000002 to merge /home/mritunjya/rooms/cryptography/crypto-hack/crackmes-one/glibc-2.34/build/elf/dl-allobjs.os (not found) and /home/mritunjya/rooms/cryptography/crypto-hack/crackmes-one/glibc-2.34/build/libc_pic.a(open64_nocancel.os) (0x3)
Removed property 0xc0000002 to merge /home/mritunjya/rooms/cryptography/crypto-hack/crackmes-one/glibc-2.34/build/elf/dl-allobjs.os (not found) and /home/mritunjya/rooms/cryptography/crypto-hack/crackmes-one/glibc-2.34/build/libc_pic.a(read_nocancel.os) (0x3)
Removed property 0xc0000002 to merge /home/mritunjya/rooms/cryptography/crypto-hack/crackmes-one/glibc-2.34/build/elf/dl-allobjs.os (not found) and /home/mritunjya/rooms/cryptography/crypto-hack/crackmes-one/glibc-2.34/build/libc_pic.a(pread64_nocancel.os) (0x3)
Removed property 0xc0000002 to merge /home/mritunjya/rooms/cryptography/crypto-hack/crackmes-one/glibc-2.34/build/elf/dl-allobjs.os (not found) and /home/mritunjya/rooms/cryptography/crypto-hack/crackmes-one/glibc-2.34/build/libc_pic.a(write_nocancel.os) (0x3)
Removed property 0xc0000002 to merge /home/mritunjya/rooms/cryptography/crypto-hack/crackmes-one/glibc-2.34/build/elf/dl-allobjs.os (not found) and /home/mritunjya/rooms/cryptography/crypto-hack/crackmes-one/glibc-2.34/build/libc_pic.a(mmap64.os) (0x3)
Removed property 0xc0000002 to merge /home/mritunjya/rooms/cryptography/crypto-hack/crackmes-one/glibc-2.34/build/elf/dl-allobjs.os (not found) and /home/mritunjya/rooms/cryptography/crypto-hack/crackmes-one/glibc-2.34/build/libc_pic.a(munmap.os) (0x3)
Removed property 0xc0000002 to merge /home/mritunjya/rooms/cryptography/crypto-hack/crackmes-one/glibc-2.34/build/elf/dl-allobjs.os (not found) and /home/mritunjya/rooms/cryptography/crypto-hack/crackmes-one/glibc-2.34/build/libc_pic.a(mprotect.os) (0x3)
Removed property 0xc0000002 to merge /home/mritunjya/rooms/cryptography/crypto-hack/crackmes-one/glibc-2.34/build/elf/dl-allobjs.os (not found) and /home/mritunjya/rooms/cryptography/crypto-hack/crackmes-one/glibc-2.34/build/libc_pic.a(profil.os) (0x3)
Removed property 0xc0000002 to merge /home/mritunjya/rooms/cryptography/crypto-hack/crackmes-one/glibc-2.34/build/elf/dl-allobjs.os (not found) and /home/mritunjya/rooms/cryptography/crypto-hack/crackmes-one/glibc-2.34/build/libc_pic.a(prof-freq.os) (0x3)
Removed property 0xc0000002 to merge /home/mritunjya/rooms/cryptography/crypto-hack/crackmes-one/glibc-2.34/build/elf/dl-allobjs.os (not found) and /home/mritunjya/rooms/cryptography/crypto-hack/crackmes-one/glibc-2.34/build/libc_pic.a(dl-addr-obj.os) (0x3)
Removed property 0xc0000002 to merge /home/mritunjya/rooms/cryptography/crypto-hack/crackmes-one/glibc-2.34/build/elf/dl-allobjs.os (not found) and /home/mritunjya/rooms/cryptography/crypto-hack/crackmes-one/glibc-2.34/build/libc_pic.a(sigaction.os) (0x3)
Removed property 0xc0000002 to merge /home/mritunjya/rooms/cryptography/crypto-hack/crackmes-one/glibc-2.34/build/elf/dl-allobjs.os (not found) and /home/mritunjya/rooms/cryptography/crypto-hack/crackmes-one/glibc-2.34/build/libc_pic.a(libc_sigaction.os) (0x3)
Removed property 0xc0000002 to merge /home/mritunjya/rooms/cryptography/crypto-hack/crackmes-one/glibc-2.34/build/elf/dl-allobjs.os (not found) and /home/mritunjya/rooms/cryptography/crypto-hack/crackmes-one/glibc-2.34/build/libc_pic.a(setitimer.os) (0x3)
Removed property 0xc0000002 to merge /home/mritunjya/rooms/cryptography/crypto-hack/crackmes-one/glibc-2.34/build/elf/dl-allobjs.os (not found) and /home/mritunjya/rooms/cryptography/crypto-hack/crackmes-one/glibc-2.34/build/libc_pic.a(getdents64.os) (0x3)

Discarded input sections

 .note.gnu.property
                0x0000000000000000       0x20 /home/mritunjya/rooms/cryptography/crypto-hack/crackmes-one/glibc-2.34/build/elf/dl-allobjs.os
 .note.gnu.property
                0x0000000000000000       0x20 /home/mritunjya/rooms/cryptography/crypto-hack/crackmes-one/glibc-2.34/build/libc_pic.a(check_fds.os)
 .note.gnu.property
                0x0000000000000000       0x20 /home/mritunjya/rooms/cryptography/crypto-hack/crackmes-one/glibc-2.34/build/libc_pic.a(errno.os)
 .note.gnu.property
                0x0000000000000000       0x20 /home/mritunjya/rooms/cryptography/crypto-hack/crackmes-one/glibc-2.34/build/libc_pic.a(setjmp.os)
 .note.gnu.property
                0x0000000000000000       0x20 /home/mritunjya/rooms/cryptography/crypto-hack/crackmes-one/glibc-2.34/build/libc_pic.a(__longjmp.os)
 .note.gnu.property
                0x0000000000000000       0x20 /home/mritunjya/rooms/cryptography/crypto-hack/crackmes-one/glibc-2.34/build/libc_pic.a(lowlevellock.os)
 .note.gnu.property
                0x0000000000000000       0x20 /home/mritunjya/rooms/cryptography/crypto-hack/crackmes-one/glibc-2.34/build/libc_pic.a(scratch_buffer_set_array_size.os)
 .note.gnu.property
                0x0000000000000000       0x20 /home/mritunjya/rooms/cryptography/crypto-hack/crackmes-one/glibc-2.34/build/libc_pic.a(strchr.os)
 .note.gnu.property
                0x0000000000000000       0x20 /home/mritunjya/rooms/cryptography/crypto-hack/crackmes-one/glibc-2.34/build/libc_pic.a(strcmp.os)
 .note.gnu.property
                0x0000000000000000       0x20 /home/mritunjya/rooms/cryptography/crypto-hack/crackmes-one/glibc-2.34/build/libc_pic.a(strcspn.os)
 .note.gnu.property
                0x0000000000000000       0x20 /home/mritunjya/rooms/cryptography/crypto-hack/crackmes-one/glibc-2.34/build/libc_pic.a(strdup.os)
 .note.gnu.property
                0x0000000000000000       0x20 /home/mritunjya/rooms/cryptography/crypto-hack/crackmes-one/glibc-2.34/build/libc_pic.a(strlen.os)
 .note.gnu.property
                0x0000000000000000       0x20 /home/mritunjya/rooms/cryptography/crypto-hack/crackmes-one/glibc-2.34/build/libc_pic.a(strnlen.os)
 .note.gnu.property
                0x0000000000000000       0x20 /home/mritunjya/rooms/cryptography/crypto-hack/crackmes-one/glibc-2.34/build/libc_pic.a(strncmp.os)
 .note.gnu.property
                0x0000000000000000       0x20 /home/mritunjya/rooms/cryptography/crypto-hack/crackmes-one/glibc-2.34/build/libc_pic.a(memchr.os)
 .note.gnu.property
                0x0000000000000000       0x20 /home/mritunjya/rooms/cryptography/crypto-hack/crackmes-one/glibc-2.34/build/libc_pic.a(memcmp.os)
 .note.gnu.property
                0x0000000000000000       0x20 /home/mritunjya/rooms/cryptography/crypto-hack/crackmes-one/glibc-2.34/build/libc_pic.a(memmove.os)
 .note.gnu.property
                0x0000000000000000       0x20 /home/mritunjya/rooms/cryptography/crypto-hack/crackmes-one/glibc-2.34/build/libc_pic.a(memset.os)
 .note.gnu.property
                0x0000000000000000       0x20 /home/mritunjya/rooms/cryptography/crypto-hack/crackmes-one/glibc-2.34/build/libc_pic.a(mempcpy.os)
 .note.gnu.property
                0x0000000000000000       0x20 /home/mritunjya/rooms/cryptography/crypto-hack/crackmes-one/glibc-2.34/build/libc_pic.a(stpcpy.os)
 .note.gnu.property
                0x0000000000000000       0x20 /home/mritunjya/rooms/cryptography/crypto-hack/crackmes-one/glibc-2.34/build/libc_pic.a(memcpy.os)
 .note.gnu.property
                0x0000000000000000       0x20 /home/mritunjya/rooms/cryptography/crypto-hack/crackmes-one/glibc-2.34/build/libc_pic.a(rawmemchr.os)
 .note.gnu.property
                0x0000000000000000       0x20 /home/mritunjya/rooms/cryptography/crypto-hack/crackmes-one/glibc-2.34/build/libc_pic.a(strcmp-sse2.os)
 .note.gnu.property
                0x0000000000000000       0x20 /home/mritunjya/rooms/cryptography/crypto-hack/crackmes-one/glibc-2.34/build/libc_pic.a(strcmp-sse2-unaligned.os)
 .note.gnu.property
                0x0000000000000000       0x20 /home/mritunjya/rooms/cryptography/crypto-hack/crackmes-one/glibc-2.34/build/libc_pic.a(strcmp-ssse3.os)
 .note.gnu.property
                0x0000000000000000       0x20 /home/mritunjya/rooms/cryptography/crypto-hack/crackmes-one/glibc-2.34/build/libc_pic.a(strcmp-avx2.os)
 .note.gnu.property
                0x0000000000000000       0x20 /home/mritunjya/rooms/cryptography/crypto-hack/crackmes-one/glibc-2.34/build/libc_pic.a(strncmp-sse2.os)
 .note.gnu.property
                0x0000000000000000       0x20 /home/mritunjya/rooms/cryptography/crypto-hack/crackmes-one/glibc-2.34/build/libc_pic.a(strncmp-ssse3.os)
 .note.gnu.property
                0x0000000000000000       0x20 /home/mritunjya/rooms/cryptography/crypto-hack/crackmes-one/glibc-2.34/build/libc_pic.a(strncmp-sse4_2.os)
 .note.gnu.property
                0x0000000000000000       0x20 /home/mritunjya/rooms/cryptography/crypto-hack/crackmes-one/glibc-2.34/build/libc_pic.a(strncmp-avx2.os)
 .note.gnu.property
                0x0000000000000000       0x20 /home/mritunjya/rooms/cryptography/crypto-hack/crackmes-one/glibc-2.34/build/libc_pic.a(memchr-sse2.os)
 .note.gnu.property
                0x0000000000000000       0x20 /home/mritunjya/rooms/cryptography/crypto-hack/crackmes-one/glibc-2.34/build/libc_pic.a(rawmemchr-sse2.os)
 .note.gnu.property
                0x0000000000000000       0x20 /home/mritunjya/rooms/cryptography/crypto-hack/crackmes-one/glibc-2.34/build/libc_pic.a(memchr-avx2.os)
 .note.gnu.property
                0x0000000000000000       0x20 /home/mritunjya/rooms/cryptography/crypto-hack/crackmes-one/glibc-2.34/build/libc_pic.a(rawmemchr-avx2.os)
 .note.gnu.property
                0x0000000000000000       0x20 /home/mritunjya/rooms/cryptography/crypto-hack/crackmes-one/glibc-2.34/build/libc_pic.a(memcmp-sse2.os)
 .note.gnu.property
                0x0000000000000000       0x20 /home/mritunjya/rooms/cryptography/crypto-hack/crackmes-one/glibc-2.34/build/libc_pic.a(memcmp-avx2-movbe.os)
 .note.gnu.property
                0x0000000000000000       0x20 /home/mritunjya/rooms/cryptography/crypto-hack/crackmes-one/glibc-2.34/build/libc_pic.a(memcmp-sse4.os)
 .note.gnu.property
                0x0000000000000000       0x20 /home/mritunjya/rooms/cryptography/crypto-hack/crackmes-one/glibc-2.34/build/libc_pic.a(memcpy-ssse3.os)
 .note.gnu.property
                0x0000000000000000       0x20 /home/mritunjya/rooms/cryptography/crypto-hack/crackmes-one/glibc-2.34/build/libc_pic.a(memmove-ssse3.os)
 .note.gnu.property
                0x0000000000000000       0x20 /home/mritunjya/rooms/cryptography/crypto-hack/crackmes-one/glibc-2.34/build/libc_pic.a(memcpy-ssse3-back.os)
 .note.gnu.property
                0x0000000000000000       0x20 /home/mritunjya/rooms/cryptography/crypto-hack/crackmes-one/glibc-2.34/build/libc_pic.a(memmove-ssse3-back.os)
 .note.gnu.property
                0x0000000000000000       0x20 /home/mritunjya/rooms/cryptography/crypto-hack/crackmes-one/glibc-2.34/build/libc_pic.a(memmove-avx512-no-vzeroupper.os)
 .note.gnu.property
                0x0000000000000000       0x20 /home/mritunjya/rooms/cryptography/crypto-hack/crackmes-one/glibc-2.34/build/libc_pic.a(strchr-sse2.os)
 .note.gnu.property
                0x0000000000000000       0x20 /home/mritunjya/rooms/cryptography/crypto-hack/crackmes-one/glibc-2.34/build/libc_pic.a(strchr-avx2.os)
 .note.gnu.property
                0x0000000000000000       0x20 /home/mritunjya/rooms/cryptography/crypto-hack/crackmes-one/glibc-2.34/build/libc_pic.a(strlen-sse2.os)
 .note.gnu.property
                0x0000000000000000       0x20 /home/mritunjya/rooms/cryptography/crypto-hack/crackmes-one/glibc-2.34/build/libc_pic.a(strnlen-sse2.os)
 .note.gnu.property
                0x0000000000000000       0x20 /home/mritunjya/rooms/cryptography/crypto-hack/crackmes-one/glibc-2.34/build/libc_pic.a(strlen-avx2.os)
 .note.gnu.property
                0x0000000000000000       0x20 /home/mritunjya/rooms/cryptography/crypto-hack/crackmes-one/glibc-2.34/build/libc_pic.a(strnlen-avx2.os)
 .note.gnu.property
                0x0000000000000000       0x20 /home/mritunjya/rooms/cryptography/crypto-hack/crackmes-one/glibc-2.34/build/libc_pic.a(stpcpy-sse2.os)
 .note.gnu.property
                0x0000000000000000       0x20 /home/mritunjya/rooms/cryptography/crypto-hack/crackmes-one/glibc-2.34/build/libc_pic.a(stpcpy-ssse3.os)
 .note.gnu.property
                0x0000000000000000       0x20 /home/mritunjya/rooms/cryptography/crypto-hack/crackmes-one/glibc-2.34/build/libc_pic.a(stpcpy-sse2-unaligned.os)
 .note.gnu.property
                0x0000000000000000       0x20 /home/mritunjya/rooms/cryptography/crypto-hack/crackmes-one/glibc-2.34/build/libc_pic.a(stpcpy-avx2.os)
 .note.gnu.property
                0x0000000000000000       0x20 /home/mritunjya/rooms/cryptography/crypto-hack/crackmes-one/glibc-2.34/build/libc_pic.a(strchr-sse2-no-bsf.os)
 .note.gnu.property
                0x0000000000000000       0x20 /home/mritunjya/rooms/cryptography/crypto-hack/crackmes-one/glibc-2.34/build/libc_pic.a(memcmp-ssse3.os)
 .note.gnu.property
                0x0000000000000000       0x20 /home/mritunjya/rooms/cryptography/crypto-hack/crackmes-one/glibc-2.34/build/libc_pic.a(strcspn-sse2.os)
 .note.gnu.property
                0x0000000000000000       0x20 /home/mritunjya/rooms/cryptography/crypto-hack/crackmes-one/glibc-2.34/build/libc_pic.a(strcspn-c.os)
 .note.gnu.property
                0x0000000000000000       0x20 /home/mritunjya/rooms/cryptography/crypto-hack/crackmes-one/glibc-2.34/build/libc_pic.a(varshift.os)
 .note.gnu.property
                0x0000000000000000       0x20 /home/mritunjya/rooms/cryptography/crypto-hack/crackmes-one/glibc-2.34/build/libc_pic.a(memset-avx512-no-vzeroupper.os)
 .note.gnu.property
                0x0000000000000000       0x20 /home/mritunjya/rooms/cryptography/crypto-hack/crackmes-one/glibc-2.34/build/libc_pic.a(memmove-sse2-unaligned-erms.os)
 .note.gnu.property
                0x0000000000000000       0x20 /home/mritunjya/rooms/cryptography/crypto-hack/crackmes-one/glibc-2.34/build/libc_pic.a(memmove-avx-unaligned-erms.os)
 .note.gnu.property
                0x0000000000000000       0x20 /home/mritunjya/rooms/cryptography/crypto-hack/crackmes-one/glibc-2.34/build/libc_pic.a(memmove-avx512-unaligned-erms.os)
 .note.gnu.property
                0x0000000000000000       0x20 /home/mritunjya/rooms/cryptography/crypto-hack/crackmes-one/glibc-2.34/build/libc_pic.a(memset-sse2-unaligned-erms.os)
 .note.gnu.property
                0x0000000000000000       0x20 /home/mritunjya/rooms/cryptography/crypto-hack/crackmes-one/glibc-2.34/build/libc_pic.a(memset-avx2-unaligned-erms.os)
 .note.gnu.property
                0x0000000000000000       0x20 /home/mritunjya/rooms/cryptography/crypto-hack/crackmes-one/glibc-2.34/build/libc_pic.a(memset-avx512-unaligned-erms.os)
 .note.gnu.property
                0x0000000000000000       0x20 /home/mritunjya/rooms/cryptography/crypto-hack/crackmes-one/glibc-2.34/build/libc_pic.a(memchr-avx2-rtm.os)
 .note.gnu.property
                0x0000000000000000       0x20 /home/mritunjya/rooms/cryptography/crypto-hack/crackmes-one/glibc-2.34/build/libc_pic.a(memcmp-avx2-movbe-rtm.os)
 .note.gnu.property
                0x0000000000000000       0x20 /home/mritunjya/rooms/cryptography/crypto-hack/crackmes-one/glibc-2.34/build/libc_pic.a(memmove-avx-unaligned-erms-rtm.os)
 .note.gnu.property
                0x0000000000000000       0x20 /home/mritunjya/rooms/cryptography/crypto-hack/crackmes-one/glibc-2.34/build/libc_pic.a(memset-avx2-unaligned-erms-rtm.os)
 .note.gnu.property
                0x0000000000000000       0x20 /home/mritunjya/rooms/cryptography/crypto-hack/crackmes-one/glibc-2.34/build/libc_pic.a(rawmemchr-avx2-rtm.os)
 .note.gnu.property
                0x0000000000000000       0x20 /home/mritunjya/rooms/cryptography/crypto-hack/crackmes-one/glibc-2.34/build/libc_pic.a(strchr-avx2-rtm.os)
 .note.gnu.property
                0x0000000000000000       0x20 /home/mritunjya/rooms/cryptography/crypto-hack/crackmes-one/glibc-2.34/build/libc_pic.a(strcmp-avx2-rtm.os)
 .note.gnu.property
                0x0000000000000000       0x20 /home/mritunjya/rooms/cryptography/crypto-hack/crackmes-one/glibc-2.34/build/libc_pic.a(stpcpy-avx2-rtm.os)
 .note.gnu.property
                0x0000000000000000       0x20 /home/mritunjya/rooms/cryptography/crypto-hack/crackmes-one/glibc-2.34/build/libc_pic.a(strlen-avx2-rtm.os)
 .note.gnu.property
                0x0000000000000000       0x20 /home/mritunjya/rooms/cryptography/crypto-hack/crackmes-one/glibc-2.34/build/libc_pic.a(strncmp-avx2-rtm.os)
 .note.gnu.property
                0x0000000000000000       0x20 /home/mritunjya/rooms/cryptography/crypto-hack/crackmes-one/glibc-2.34/build/libc_pic.a(strnlen-avx2-rtm.os)
 .note.gnu.property
                0x0000000000000000       0x20 /home/mritunjya/rooms/cryptography/crypto-hack/crackmes-one/glibc-2.34/build/libc_pic.a(memchr-evex.os)
 .note.gnu.property
                0x0000000000000000       0x20 /home/mritunjya/rooms/cryptography/crypto-hack/crackmes-one/glibc-2.34/build/libc_pic.a(memcmp-evex-movbe.os)
 .note.gnu.property
                0x0000000000000000       0x20 /home/mritunjya/rooms/cryptography/crypto-hack/crackmes-one/glibc-2.34/build/libc_pic.a(memmove-evex-unaligned-erms.os)
 .note.gnu.property
                0x0000000000000000       0x20 /home/mritunjya/rooms/cryptography/crypto-hack/crackmes-one/glibc-2.34/build/libc_pic.a(memset-evex-unaligned-erms.os)
 .note.gnu.property
                0x0000000000000000       0x20 /home/mritunjya/rooms/cryptography/crypto-hack/crackmes-one/glibc-2.34/build/libc_pic.a(rawmemchr-evex.os)
 .note.gnu.property
                0x0000000000000000       0x20 /home/mritunjya/rooms/cryptography/crypto-hack/crackmes-one/glibc-2.34/build/libc_pic.a(stpcpy-evex.os)
 .note.gnu.property
                0x0000000000000000       0x20 /home/mritunjya/rooms/cryptography/crypto-hack/crackmes-one/glibc-2.34/build/libc_pic.a(strchr-evex.os)
 .note.gnu.property
                0x0000000000000000       0x20 /home/mritunjya/rooms/cryptography/crypto-hack/crackmes-one/glibc-2.34/build/libc_pic.a(strcmp-evex.os)
 .note.gnu.property
                0x0000000000000000       0x20 /home/mritunjya/rooms/cryptography/crypto-hack/crackmes-one/glibc-2.34/build/libc_pic.a(strlen-evex.os)
 .note.gnu.property
                0x0000000000000000       0x20 /home/mritunjya/rooms/cryptography/crypto-hack/crackmes-one/glibc-2.34/build/libc_pic.a(strncmp-evex.os)
 .note.gnu.property
                0x0000000000000000       0x20 /home/mritunjya/rooms/cryptography/crypto-hack/crackmes-one/glibc-2.34/build/libc_pic.a(strnlen-evex.os)
 .note.gnu.property
                0x0000000000000000       0x20 /home/mritunjya/rooms/cryptography/crypto-hack/crackmes-one/glibc-2.34/build/libc_pic.a(memchr-evex-rtm.os)
 .note.gnu.property
                0x0000000000000000       0x20 /home/mritunjya/rooms/cryptography/crypto-hack/crackmes-one/glibc-2.34/build/libc_pic.a(rawmemchr-evex-rtm.os)
 .note.gnu.property
                0x0000000000000000       0x20 /home/mritunjya/rooms/cryptography/crypto-hack/crackmes-one/glibc-2.34/build/libc_pic.a(cacheinfo.os)
 .note.gnu.property
                0x0000000000000000       0x20 /home/mritunjya/rooms/cryptography/crypto-hack/crackmes-one/glibc-2.34/build/libc_pic.a(closedir.os)
 .note.gnu.property
                0x0000000000000000       0x20 /home/mritunjya/rooms/cryptography/crypto-hack/crackmes-one/glibc-2.34/build/libc_pic.a(rewinddir.os)
 .note.gnu.property
                0x0000000000000000       0x20 /home/mritunjya/rooms/cryptography/crypto-hack/crackmes-one/glibc-2.34/build/libc_pic.a(readdir64.os)
 .note.gnu.property
                0x0000000000000000       0x20 /home/mritunjya/rooms/cryptography/crypto-hack/crackmes-one/glibc-2.34/build/libc_pic.a(fdopendir.os)
 .note.gnu.property
                0x0000000000000000       0x20 /home/mritunjya/rooms/cryptography/crypto-hack/crackmes-one/glibc-2.34/build/libc_pic.a(uname.os)
 .note.gnu.property
                0x0000000000000000       0x20 /home/mritunjya/rooms/cryptography/crypto-hack/crackmes-one/glibc-2.34/build/libc_pic.a(_exit.os)
 .note.gnu.property
                0x0000000000000000       0x20 /home/mritunjya/rooms/cryptography/crypto-hack/crackmes-one/glibc-2.34/build/libc_pic.a(getpid.os)
 .note.gnu.property
                0x0000000000000000       0x20 /home/mritunjya/rooms/cryptography/crypto-hack/crackmes-one/glibc-2.34/build/libc_pic.a(environ.os)
 .note.gnu.property
                0x0000000000000000       0x20 /home/mritunjya/rooms/cryptography/crypto-hack/crackmes-one/glibc-2.34/build/libc_pic.a(stat64.os)
 .note.gnu.property
                0x0000000000000000       0x20 /home/mritunjya/rooms/cryptography/crypto-hack/crackmes-one/glibc-2.34/build/libc_pic.a(fstat64.os)
 .note.gnu.property
                0x0000000000000000       0x20 /home/mritunjya/rooms/cryptography/crypto-hack/crackmes-one/glibc-2.34/build/libc_pic.a(lstat64.os)
 .note.gnu.property
                0x0000000000000000       0x20 /home/mritunjya/rooms/cryptography/crypto-hack/crackmes-one/glibc-2.34/build/libc_pic.a(fstatat64.os)
 .note.gnu.property
                0x0000000000000000       0x20 /home/mritunjya/rooms/cryptography/crypto-hack/crackmes-one/glibc-2.34/build/libc_pic.a(openat64.os)
 .note.gnu.property
                0x0000000000000000       0x20 /home/mritunjya/rooms/cryptography/crypto-hack/crackmes-one/glibc-2.34/build/libc_pic.a(lseek64.os)
 .note.gnu.property
                0x0000000000000000       0x20 /home/mritunjya/rooms/cryptography/crypto-hack/crackmes-one/glibc-2.34/build/libc_pic.a(access.os)
 .note.gnu.property
                0x0000000000000000       0x20 /home/mritunjya/rooms/cryptography/crypto-hack/crackmes-one/glibc-2.34/build/libc_pic.a(close_nocancel.os)
 .note.gnu.property
                0x0000000000000000       0x20 /home/mritunjya/rooms/cryptography/crypto-hack/crackmes-one/glibc-2.34/build/libc_pic.a(fcntl_nocancel.os)
 .note.gnu.property
                0x0000000000000000       0x20 /home/mritunjya/rooms/cryptography/crypto-hack/crackmes-one/glibc-2.34/build/libc_pic.a(open64_nocancel.os)
 .note.gnu.property
                0x0000000000000000       0x20 /home/mritunjya/rooms/cryptography/crypto-hack/crackmes-one/glibc-2.34/build/libc_pic.a(read_nocancel.os)
 .note.gnu.property
                0x0000000000000000       0x20 /home/mritunjya/rooms/cryptography/crypto-hack/crackmes-one/glibc-2.34/build/libc_pic.a(pread64_nocancel.os)
 .note.gnu.property
                0x0000000000000000       0x20 /home/mritunjya/rooms/cryptography/crypto-hack/crackmes-one/glibc-2.34/build/libc_pic.a(write_nocancel.os)
 .note.gnu.property
                0x0000000000000000       0x20 /home/mritunjya/rooms/cryptography/crypto-hack/crackmes-one/glibc-2.34/build/libc_pic.a(mmap64.os)
 .note.gnu.property
                0x0000000000000000       0x20 /home/mritunjya/rooms/cryptography/crypto-hack/crackmes-one/glibc-2.34/build/libc_pic.a(munmap.os)
 .note.gnu.property
                0x0000000000000000       0x20 /home/mritunjya/rooms/cryptography/crypto-hack/crackmes-one/glibc-2.34/build/libc_pic.a(mprotect.os)
 .note.gnu.property
                0x0000000000000000       0x20 /home/mritunjya/rooms/cryptography/crypto-hack/crackmes-one/glibc-2.34/build/libc_pic.a(profil.os)
 .note.gnu.property
                0x0000000000000000       0x20 /home/mritunjya/rooms/cryptography/crypto-hack/crackmes-one/glibc-2.34/build/libc_pic.a(prof-freq.os)
 .note.gnu.property
                0x0000000000000000       0x20 /home/mritunjya/rooms/cryptography/crypto-hack/crackmes-one/glibc-2.34/build/libc_pic.a(dl-addr-obj.os)
 .note.gnu.property
                0x0000000000000000       0x20 /home/mritunjya/rooms/cryptography/crypto-hack/crackmes-one/glibc-2.34/build/libc_pic.a(sigaction.os)
 .note.gnu.property
                0x0000000000000000       0x20 /home/mritunjya/rooms/cryptography/crypto-hack/crackmes-one/glibc-2.34/build/libc_pic.a(libc_sigaction.os)
 .note.gnu.property
                0x0000000000000000       0x20 /home/mritunjya/rooms/cryptography/crypto-hack/crackmes-one/glibc-2.34/build/libc_pic.a(setitimer.os)
 .note.gnu.property
                0x0000000000000000       0x20 /home/mritunjya/rooms/cryptography/crypto-hack/crackmes-one/glibc-2.34/build/libc_pic.a(getdents64.os)

Memory Configuration

Name             Origin             Length             Attributes
*default*        0x0000000000000000 0xffffffffffffffff

Linker script and memory map

LOAD /home/mritunjya/rooms/cryptography/crypto-hack/crackmes-one/glibc-2.34/build/elf/librtld.mapT.o
START GROUP
LOAD /home/mritunjya/rooms/cryptography/crypto-hack/crackmes-one/glibc-2.34/build/elf/dl-allobjs.os
LOAD /home/mritunjya/rooms/cryptography/crypto-hack/crackmes-one/glibc-2.34/build/libc_pic.a
LOAD /usr/lib/gcc/x86_64-linux-gnu/8/libgcc.a
END GROUP

.interp
 *(.interp)

.note.gnu.build-id
 *(.note.gnu.build-id)

.hash
 *(.hash)

.gnu.hash
 *(.gnu.hash)

.dynsym
 *(.dynsym)

.dynstr
 *(.dynstr)

.gnu.version
 *(.gnu.version)

.gnu.version_d
 *(.gnu.version_d)

.gnu.version_r
 *(.gnu.version_r)

.rela.init
 *(.rela.init)

.rela.text
 *(.rela.text)

.rela.fini
 *(.rela.fini)

.rela.rodata
 *(.rela.rodata)

.rela.data.rel.ro
 *(.rela.data.rel.ro)

.rela.data
 *(.rela.data)

.rela.tdata
 *(.rela.tdata)

.rela.tbss
 *(.rela.tbss)

.rela.ctors
 *(.rela.ctors)

.rela.dtors
 *(.rela.dtors)

.rela.got
 *(.rela.got)

.rela.bss
 *(.rela.bss)

.rela.ldata
 *(.rela.ldata)

.rela.lbss
 *(.rela.lbss)

.rela.lrodata
 *(.rela.lrodata)

.rela.ifunc
 *(.rela.ifunc)

.rela.plt
 *(.rela.plt)

.init
 *(SORT_NONE(.init))

.plt
 *(.plt)

.plt.got
 *(.plt.got)

.plt.sec
 *(.plt.sec)

.text           0x0000000000000000    0x267ec
 *(.text .stub)
 .text          0x0000000000000000        0x0 /home/mritunjya/rooms/cryptography/crypto-hack/crackmes-one/glibc-2.34/build/elf/librtld.mapT.o
                0x0000000000000000                __stack_chk_fail_local
                0x0000000000000000                malloc
                0x0000000000000000                __stack_chk_fail
                0x0000000000000000                calloc
                0x0000000000000000                __GI___pthread_enable_asynccancel
                0x0000000000000000                realloc
                0x0000000000000000                __GI___pthread_disable_asynccancel
                0x0000000000000000                __pthread_enable_asynccancel
                0x0000000000000000                __pthread_disable_asynccancel
                0x0000000000000000                free
 .text          0x0000000000000000    0x1fc24 /home/mritunjya/rooms/cryptography/crypto-hack/crackmes-one/glibc-2.34/build/elf/dl-allobjs.os
                0x0000000000000000                _start
                0x0000000000000008                _dl_start_user
                0x0000000000001390                handle_preload_list
                0x0000000000006550                _dl_dst_count
                0x00000000000065f0                _dl_dst_substitute
                0x0000000000006da0                _dl_init_paths
                0x0000000000007110                _dl_process_pt_gnu_property
                0x0000000000008800                _dl_map_object
                0x0000000000009330                _dl_rtld_di_serinfo
                0x000000000000a220                _dl_lookup_symbol_x
                0x000000000000b130                _dl_setup_hash
                0x000000000000b1f0                _dl_add_to_namespace_list
                0x000000000000b290                _dl_new_object
                0x000000000000b680                _dl_try_allocate_static_tls
                0x000000000000b7b0                _dl_allocate_static_tls
                0x000000000000b7f0                _dl_protect_relro
                0x000000000000b860                _dl_reloc_bad_type
                0x000000000000b930                _dl_relocate_object
                0x000000000000d6f0                _dl_map_object_deps
                0x000000000000e8d0                _dl_fixup
                0x000000000000ea80                _dl_profile_fixup
                0x000000000000f130                _dl_call_pltexit
                0x000000000000f3d0                _dl_init
                0x000000000000f500                _dl_fini
                0x000000000000f930                _dl_debug_state
                0x000000000000f930                __GI__dl_debug_state
                0x000000000000f940                _dl_debug_initialize
                0x0000000000010180                _dl_sysdep_read_whole_file
                0x0000000000010210                _dl_debug_printf
                0x00000000000102c0                _dl_debug_printf_c
                0x0000000000010370                _dl_dprintf
                0x0000000000010410                _dl_printf
                0x00000000000104c0                _dl_error_printf
                0x0000000000010570                _dl_fatal_printf
                0x0000000000010570                __GI__dl_fatal_printf
                0x0000000000010620                _dl_name_match_p
                0x0000000000010690                _dl_higher_prime_number
                0x0000000000010710                _dl_strtoul
                0x0000000000010870                _dl_check_map_versions
                0x0000000000010fc0                _dl_check_all_versions
                0x0000000000011030                _dl_start_profile
                0x0000000000011840                __GI__dl_mcount
                0x0000000000011840                _dl_mcount
                0x0000000000011d90                _dl_tls_static_surplus_init
                0x0000000000011e20                _dl_assign_tls_modid
                0x0000000000011f40                _dl_count_modids
                0x0000000000011fb0                _dl_determine_tlsoffset
                0x0000000000012160                _dl_get_tls_static_info
                0x0000000000012180                _dl_allocate_tls_storage
                0x0000000000012250                __GI__dl_allocate_tls_init
                0x0000000000012250                _dl_allocate_tls_init
                0x00000000000124b0                __GI__dl_allocate_tls
                0x00000000000124b0                _dl_allocate_tls
                0x00000000000124f0                _dl_deallocate_tls
                0x00000000000124f0                __GI__dl_deallocate_tls
                0x0000000000012580                _dl_update_slotinfo
                0x00000000000127d0                __GI___tls_get_addr
                0x00000000000127d0                ___tls_get_addr
                0x0000000000012820                _dl_tls_get_addr_soft
                0x00000000000128a0                _dl_add_to_slotinfo
                0x00000000000129c0                _dl_init_static_tls
                0x0000000000012af0                __tls_get_addr_slow
                0x0000000000012b20                _dl_get_origin
                0x0000000000012cd0                _dl_scope_free
                0x0000000000012db0                __GI___nptl_change_stack_perm
                0x0000000000012db0                __nptl_change_stack_perm
                0x0000000000012df0                _dl_make_stacks_executable
                0x0000000000013220                __GI__dl_find_dso_for_object
                0x0000000000013220                _dl_find_dso_for_object
                0x00000000000132f0                _dl_open
                0x0000000000013630                _dl_show_scope
                0x0000000000014410                _dl_close_worker
                0x0000000000015560                _dl_close
                0x00000000000155d0                _dl_runtime_profile_avx512
                0x0000000000015a50                _dl_runtime_profile_avx
                0x0000000000015ed0                _dl_runtime_profile_sse
                0x00000000000160d0                _dl_runtime_resolve_fxsave
                0x0000000000016150                _dl_runtime_resolve_xsave
                0x0000000000016220                _dl_runtime_resolve_xsavec
                0x0000000000016300                _dl_error_free
                0x0000000000016330                _dl_exception_create
                0x0000000000016330                __GI__dl_exception_create
                0x0000000000016430                __GI__dl_exception_create_format
                0x0000000000016430                _dl_exception_create_format
                0x00000000000168b0                _dl_exception_free
                0x00000000000168b0                __GI__dl_exception_free
                0x00000000000168e0                _dl_sort_maps
                0x0000000000016c90                _dl_lookup_direct
                0x0000000000016e60                _dl_call_libc_early_init
                0x0000000000016ef0                _dl_write
                0x0000000000016f00                __thread_gscope_wait
                0x0000000000017110                __tls_pre_init_tp
                0x0000000000017170                __tls_init_tp
                0x0000000000017240                _dl_cache_libcmp
                0x0000000000017ab0                _dl_load_cache_lookup
                0x0000000000017e70                _dl_unload_cache
                0x0000000000017fe0                __GI___tunable_set_val
                0x0000000000018010                __GI___tunables_init
                0x00000000000185b0                __GI___tunables_print
                0x00000000000186b0                __tunable_get_val
                0x00000000000186b0                __GI___tunable_get_val
                0x0000000000018740                _dl_make_tlsdesc_dynamic
                0x00000000000189f0                _dl_unmap
                0x0000000000018a70                _dl_tlsdesc_return
                0x0000000000018a80                _dl_tlsdesc_undefweak
                0x0000000000018aa0                _dl_tlsdesc_dynamic
                0x0000000000018b40                __tls_get_addr
                0x000000000001abb0                __x86_cpu_features
                0x000000000001abe0                _dl_x86_init_cpu_features
                0x000000000001ac00                _dl_x86_get_cpu_features
                0x000000000001b010                _dl_cet_open_check
                0x000000000001b020                _dl_cet_check
                0x000000000001b030                _dl_tunable_set_hwcaps
                0x000000000001bb50                _dl_tunable_set_x86_ibt
                0x000000000001bbd0                _dl_tunable_set_x86_shstk
                0x000000000001bc50                _dl_sysdep_start
                0x000000000001c010                _dl_sysdep_start_cleanup
                0x000000000001c020                _dl_show_auxv
                0x000000000001c1c0                _dl_discover_osversion
                0x000000000001c3a0                _dl_next_ld_env_entry
                0x000000000001c3f0                unsetenv
                0x000000000001c620                __rtld_malloc_init_stubs
                0x000000000001c660                __sigjmp_save
                0x000000000001c670                __strerror_r
                0x000000000001c760                __GI___libc_fatal
                0x000000000001c760                __libc_fatal
                0x000000000001c780                __GI___chk_fail
                0x000000000001c780                __chk_fail
                0x000000000001c7a0                __GI___assert_fail
                0x000000000001c7a0                __assert_fail
                0x000000000001c870                __rtld_malloc_is_complete
                0x000000000001cae0                __rtld_malloc_init_real
                0x000000000001cbe0                __GI___assert_perror_fail
                0x000000000001cbe0                __assert_perror_fail
                0x000000000001cc40                _itoa
                0x000000000001cca0                __strsep
                0x000000000001cca0                strsep
                0x000000000001cca0                __strsep_g
                0x000000000001cdd0                _dl_signal_exception
                0x000000000001ce20                _dl_signal_error
                0x000000000001ce70                _dl_signal_cexception
                0x000000000001cef0                _dl_signal_cerror
                0x000000000001cf80                _dl_catch_exception
                0x000000000001d070                _dl_catch_error
                0x000000000001d0c0                _dl_receive_error
                0x000000000001d110                _rtld_catch_error
                0x000000000001d120                _dl_resolve_conflicts
                0x000000000001d390                _dl_important_hwcaps
                0x000000000001dd00                _dl_hwcaps_split
                0x000000000001dd30                _dl_hwcaps_contains
                0x000000000001ddd0                _dl_hwcaps_split_masked
                0x000000000001de30                _dl_hwcaps_subdirs_active
                0x000000000001dff0                _dl_usage
                0x000000000001e040                _dl_version
                0x000000000001e060                _dl_help
                0x000000000001e5d0                _dl_diagnostics_print_string
                0x000000000001e660                _dl_diagnostics_print_labeled_string
                0x000000000001e6b0                _dl_diagnostics_print_labeled_value
                0x000000000001e6d0                _dl_print_diagnostics
                0x000000000001eb80                _dl_diagnostics_kernel
                0x000000000001ec20                _dl_diagnostics_cpu
                0x000000000001f2b0                __rtld_mutex_init
                0x000000000001f3a0                __brk
                0x000000000001f3a0                brk
                0x000000000001f3d0                sbrk
                0x000000000001f3d0                __sbrk
                0x000000000001f470                __getcwd
                0x000000000001f470                getcwd
                0x000000000001fa50                openat64
                0x000000000001fab0                __alloc_dir
                0x000000000001fb90                __opendir
                0x000000000001fb90                opendir
 *fill*         0x000000000001fc24        0xc 
 .text          0x000000000001fc30       0xd6 /home/mritunjya/rooms/cryptography/crypto-hack/crackmes-one/glibc-2.34/build/libc_pic.a(check_fds.os)
                0x000000000001fcd0                __libc_check_standard_fds
 .text          0x000000000001fd06        0x0 /home/mritunjya/rooms/cryptography/crypto-hack/crackmes-one/glibc-2.34/build/libc_pic.a(errno.os)
 *fill*         0x000000000001fd06        0xa 
 .text          0x000000000001fd10       0x72 /home/mritunjya/rooms/cryptography/crypto-hack/crackmes-one/glibc-2.34/build/libc_pic.a(setjmp.os)
                0x000000000001fd10                __sigsetjmp
                0x000000000001fd10                __GI___sigsetjmp
 *fill*         0x000000000001fd82        0xe 
 .text          0x000000000001fd90       0x8e /home/mritunjya/rooms/cryptography/crypto-hack/crackmes-one/glibc-2.34/build/libc_pic.a(__longjmp.os)
                0x000000000001fd90                __longjmp
 *fill*         0x000000000001fe1e        0x2 
 .text          0x000000000001fe20      0x118 /home/mritunjya/rooms/cryptography/crypto-hack/crackmes-one/glibc-2.34/build/libc_pic.a(lowlevellock.os)
                0x000000000001fe20                __GI___lll_lock_wait_private
                0x000000000001fe20                __lll_lock_wait_private
                0x000000000001fe90                __lll_lock_wait
                0x000000000001fe90                __GI___lll_lock_wait
                0x000000000001ff00                __lll_lock_wake_private
                0x000000000001ff00                __GI___lll_lock_wake_private
                0x000000000001ff20                __lll_lock_wake
                0x000000000001ff20                __GI___lll_lock_wake
 *fill*         0x000000000001ff38        0x8 
 .text          0x000000000001ff40       0xb8 /home/mritunjya/rooms/cryptography/crypto-hack/crackmes-one/glibc-2.34/build/libc_pic.a(scratch_buffer_set_array_size.os)
                0x000000000001ff40                __libc_scratch_buffer_set_array_size
                0x000000000001ff40                __GI___libc_scratch_buffer_set_array_size
 *fill*         0x000000000001fff8        0x8 
 .text          0x0000000000020000       0x78 /home/mritunjya/rooms/cryptography/crypto-hack/crackmes-one/glibc-2.34/build/libc_pic.a(strchr.os)
                0x0000000000020000                __GI_strchr
                0x0000000000020000                index
                0x0000000000020000                strchr
 *fill*         0x0000000000020078        0x8 
 .text          0x0000000000020080       0x8f /home/mritunjya/rooms/cryptography/crypto-hack/crackmes-one/glibc-2.34/build/libc_pic.a(strcmp.os)
                0x0000000000020080                __GI_strcmp
                0x0000000000020080                strcmp
 *fill*         0x000000000002010f        0x1 
 .text          0x0000000000020110       0x25 /home/mritunjya/rooms/cryptography/crypto-hack/crackmes-one/glibc-2.34/build/libc_pic.a(strcspn.os)
                0x0000000000020110                strcspn
                0x0000000000020110                __GI_strcspn
 *fill*         0x0000000000020135        0xb 
 .text          0x0000000000020140       0x49 /home/mritunjya/rooms/cryptography/crypto-hack/crackmes-one/glibc-2.34/build/libc_pic.a(strdup.os)
                0x0000000000020140                __GI___strdup
                0x0000000000020140                __strdup
                0x0000000000020140                strdup
 *fill*         0x0000000000020189        0x7 
 .text          0x0000000000020190       0x78 /home/mritunjya/rooms/cryptography/crypto-hack/crackmes-one/glibc-2.34/build/libc_pic.a(strlen.os)
                0x0000000000020190                strlen
                0x0000000000020190                __GI_strlen
 *fill*         0x0000000000020208        0x8 
 .text          0x0000000000020210       0x78 /home/mritunjya/rooms/cryptography/crypto-hack/crackmes-one/glibc-2.34/build/libc_pic.a(strnlen.os)
                0x0000000000020210                __strnlen
                0x0000000000020210                strnlen
                0x0000000000020210                __GI___strnlen
                0x0000000000020210                __GI_strnlen
 *fill*         0x0000000000020288        0x8 
 .text          0x0000000000020290       0x9f /home/mritunjya/rooms/cryptography/crypto-hack/crackmes-one/glibc-2.34/build/libc_pic.a(strncmp.os)
                0x0000000000020290                __GI_strncmp
                0x0000000000020290                strncmp
 *fill*         0x000000000002032f        0x1 
 .text          0x0000000000020330       0x8d /home/mritunjya/rooms/cryptography/crypto-hack/crackmes-one/glibc-2.34/build/libc_pic.a(memchr.os)
                0x0000000000020330                __GI_memchr
                0x0000000000020330                memchr
                0x0000000000020330                __memchr
 *fill*         0x00000000000203bd        0x3 
 .text          0x00000000000203c0       0x99 /home/mritunjya/rooms/cryptography/crypto-hack/crackmes-one/glibc-2.34/build/libc_pic.a(memcmp.os)
                0x00000000000203c0                bcmp
                0x00000000000203c0                __GI_memcmp
                0x00000000000203c0                memcmp
 *fill*         0x0000000000020459        0x7 
 .text          0x0000000000020460      0x121 /home/mritunjya/rooms/cryptography/crypto-hack/crackmes-one/glibc-2.34/build/libc_pic.a(memmove.os)
                0x0000000000020460                memmove
                0x0000000000020460                __GI_memmove
                0x0000000000020460                __libc_memmove
 *fill*         0x0000000000020581        0xf 
 .text          0x0000000000020590       0xf1 /home/mritunjya/rooms/cryptography/crypto-hack/crackmes-one/glibc-2.34/build/libc_pic.a(memset.os)
                0x0000000000020590                __GI_memset
                0x0000000000020590                memset
 *fill*         0x0000000000020681        0xf 
 .text          0x0000000000020690      0x121 /home/mritunjya/rooms/cryptography/crypto-hack/crackmes-one/glibc-2.34/build/libc_pic.a(mempcpy.os)
                0x0000000000020690                mempcpy
                0x0000000000020690                __GI_mempcpy
                0x0000000000020690                __mempcpy
                0x0000000000020690                __GI___mempcpy
 *fill*         0x00000000000207b1        0xf 
 .text          0x00000000000207c0       0x81 /home/mritunjya/rooms/cryptography/crypto-hack/crackmes-one/glibc-2.34/build/libc_pic.a(stpcpy.os)
                0x00000000000207c0                stpcpy
                0x00000000000207c0                __GI_stpcpy
                0x00000000000207c0                __stpcpy
                0x00000000000207c0                __GI___stpcpy
 *fill*         0x0000000000020841        0xf 
 .text          0x0000000000020850      0x121 /home/mritunjya/rooms/cryptography/crypto-hack/crackmes-one/glibc-2.34/build/libc_pic.a(memcpy.os)
                0x0000000000020850                __GI_memcpy
                0x0000000000020850                __SI__new_memcpy_0
                0x0000000000020850                __new_memcpy
                0x0000000000020850                memcpy@@GLIBC_2.14
 *fill*         0x0000000000020971        0xf 
 .text          0x0000000000020980       0x8d /home/mritunjya/rooms/cryptography/crypto-hack/crackmes-one/glibc-2.34/build/libc_pic.a(rawmemchr.os)
                0x0000000000020980                __GI___rawmemchr
                0x0000000000020980                __rawmemchr
                0x0000000000020980                rawmemchr
 *fill*         0x0000000000020a0d        0x3 
 .text          0x0000000000020a10     0x1449 /home/mritunjya/rooms/cryptography/crypto-hack/crackmes-one/glibc-2.34/build/libc_pic.a(strcmp-sse2.os)
                0x0000000000020a10                __strcmp_sse2
 *fill*         0x0000000000021e59        0x7 
 .text          0x0000000000021e60      0x2a3 /home/mritunjya/rooms/cryptography/crypto-hack/crackmes-one/glibc-2.34/build/libc_pic.a(strcmp-sse2-unaligned.os)
                0x0000000000021e60                __strcmp_sse2_unaligned
 .text          0x0000000000022103        0x0 /home/mritunjya/rooms/cryptography/crypto-hack/crackmes-one/glibc-2.34/build/libc_pic.a(strcmp-ssse3.os)
 .text          0x0000000000022103        0x0 /home/mritunjya/rooms/cryptography/crypto-hack/crackmes-one/glibc-2.34/build/libc_pic.a(strcmp-avx2.os)
 *fill*         0x0000000000022103        0xd 
 .text          0x0000000000022110     0x1859 /home/mritunjya/rooms/cryptography/crypto-hack/crackmes-one/glibc-2.34/build/libc_pic.a(strncmp-sse2.os)
                0x0000000000022110                __strncmp_sse2
 .text          0x0000000000023969        0x0 /home/mritunjya/rooms/cryptography/crypto-hack/crackmes-one/glibc-2.34/build/libc_pic.a(strncmp-ssse3.os)
 .text          0x0000000000023969        0x0 /home/mritunjya/rooms/cryptography/crypto-hack/crackmes-one/glibc-2.34/build/libc_pic.a(strncmp-sse4_2.os)
 .text          0x0000000000023969        0x0 /home/mritunjya/rooms/cryptography/crypto-hack/crackmes-one/glibc-2.34/build/libc_pic.a(strncmp-avx2.os)
 *fill*         0x0000000000023969        0x7 
 .text          0x0000000000023970      0x323 /home/mritunjya/rooms/cryptography/crypto-hack/crackmes-one/glibc-2.34/build/libc_pic.a(memchr-sse2.os)
                0x0000000000023970                __memchr_sse2
 *fill*         0x0000000000023c93        0xd 
 .text          0x0000000000023ca0      0x209 /home/mritunjya/rooms/cryptography/crypto-hack/crackmes-one/glibc-2.34/build/libc_pic.a(rawmemchr-sse2.os)
                0x0000000000023ca0                __rawmemchr_sse2
 .text          0x0000000000023ea9        0x0 /home/mritunjya/rooms/cryptography/crypto-hack/crackmes-one/glibc-2.34/build/libc_pic.a(memchr-avx2.os)
 .text          0x0000000000023ea9        0x0 /home/mritunjya/rooms/cryptography/crypto-hack/crackmes-one/glibc-2.34/build/libc_pic.a(rawmemchr-avx2.os)
 *fill*         0x0000000000023ea9        0x7 
 .text          0x0000000000023eb0      0x400 /home/mritunjya/rooms/cryptography/crypto-hack/crackmes-one/glibc-2.34/build/libc_pic.a(memcmp-sse2.os)
                0x0000000000023eb0                __memcmp_sse2
 .text          0x00000000000242b0        0x0 /home/mritunjya/rooms/cryptography/crypto-hack/crackmes-one/glibc-2.34/build/libc_pic.a(memcmp-avx2-movbe.os)
 .text          0x00000000000242b0        0x0 /home/mritunjya/rooms/cryptography/crypto-hack/crackmes-one/glibc-2.34/build/libc_pic.a(memcmp-sse4.os)
 .text          0x00000000000242b0        0x0 /home/mritunjya/rooms/cryptography/crypto-hack/crackmes-one/glibc-2.34/build/libc_pic.a(memcpy-ssse3.os)
 .text          0x00000000000242b0        0x0 /home/mritunjya/rooms/cryptography/crypto-hack/crackmes-one/glibc-2.34/build/libc_pic.a(memmove-ssse3.os)
 .text          0x00000000000242b0        0x0 /home/mritunjya/rooms/cryptography/crypto-hack/crackmes-one/glibc-2.34/build/libc_pic.a(memcpy-ssse3-back.os)
 .text          0x00000000000242b0        0x0 /home/mritunjya/rooms/cryptography/crypto-hack/crackmes-one/glibc-2.34/build/libc_pic.a(memmove-ssse3-back.os)
 .text          0x00000000000242b0        0x0 /home/mritunjya/rooms/cryptography/crypto-hack/crackmes-one/glibc-2.34/build/libc_pic.a(memmove-avx512-no-vzeroupper.os)
 .text          0x00000000000242b0      0x22a /home/mritunjya/rooms/cryptography/crypto-hack/crackmes-one/glibc-2.34/build/libc_pic.a(strchr-sse2.os)
                0x00000000000242b0                __strchr_sse2
 .text          0x00000000000244da        0x0 /home/mritunjya/rooms/cryptography/crypto-hack/crackmes-one/glibc-2.34/build/libc_pic.a(strchr-avx2.os)
 *fill*         0x00000000000244da        0x6 
 .text          0x00000000000244e0      0x19c /home/mritunjya/rooms/cryptography/crypto-hack/crackmes-one/glibc-2.34/build/libc_pic.a(strlen-sse2.os)
                0x00000000000244e0                __strlen_sse2
 *fill*         0x000000000002467c        0x4 
 .text          0x0000000000024680      0x218 /home/mritunjya/rooms/cryptography/crypto-hack/crackmes-one/glibc-2.34/build/libc_pic.a(strnlen-sse2.os)
                0x0000000000024680                __strnlen_sse2
 .text          0x0000000000024898        0x0 /home/mritunjya/rooms/cryptography/crypto-hack/crackmes-one/glibc-2.34/build/libc_pic.a(strlen-avx2.os)
 .text          0x0000000000024898        0x0 /home/mritunjya/rooms/cryptography/crypto-hack/crackmes-one/glibc-2.34/build/libc_pic.a(strnlen-avx2.os)
 *fill*         0x0000000000024898        0x8 
 .text          0x00000000000248a0       0xec /home/mritunjya/rooms/cryptography/crypto-hack/crackmes-one/glibc-2.34/build/libc_pic.a(stpcpy-sse2.os)
                0x00000000000248a0                __stpcpy_sse2
 .text          0x000000000002498c        0x0 /home/mritunjya/rooms/cryptography/crypto-hack/crackmes-one/glibc-2.34/build/libc_pic.a(stpcpy-ssse3.os)
 *fill*         0x000000000002498c        0x4 
 .text          0x0000000000024990      0x6c0 /home/mritunjya/rooms/cryptography/crypto-hack/crackmes-one/glibc-2.34/build/libc_pic.a(stpcpy-sse2-unaligned.os)
                0x0000000000024990                __stpcpy_sse2_unaligned
 .text          0x0000000000025050        0x0 /home/mritunjya/rooms/cryptography/crypto-hack/crackmes-one/glibc-2.34/build/libc_pic.a(stpcpy-avx2.os)
 .text          0x0000000000025050        0x0 /home/mritunjya/rooms/cryptography/crypto-hack/crackmes-one/glibc-2.34/build/libc_pic.a(strchr-sse2-no-bsf.os)
 .text          0x0000000000025050        0x0 /home/mritunjya/rooms/cryptography/crypto-hack/crackmes-one/glibc-2.34/build/libc_pic.a(memcmp-ssse3.os)
 .text          0x0000000000025050       0xa7 /home/mritunjya/rooms/cryptography/crypto-hack/crackmes-one/glibc-2.34/build/libc_pic.a(strcspn-sse2.os)
                0x0000000000025050                __strcspn_sse2
 .text          0x00000000000250f7        0x0 /home/mritunjya/rooms/cryptography/crypto-hack/crackmes-one/glibc-2.34/build/libc_pic.a(strcspn-c.os)
 .text          0x00000000000250f7        0x0 /home/mritunjya/rooms/cryptography/crypto-hack/crackmes-one/glibc-2.34/build/libc_pic.a(varshift.os)
 .text          0x00000000000250f7        0x0 /home/mritunjya/rooms/cryptography/crypto-hack/crackmes-one/glibc-2.34/build/libc_pic.a(memset-avx512-no-vzeroupper.os)
 *fill*         0x00000000000250f7        0x9 
 .text          0x0000000000025100      0x692 /home/mritunjya/rooms/cryptography/crypto-hack/crackmes-one/glibc-2.34/build/libc_pic.a(memmove-sse2-unaligned-erms.os)
                0x0000000000025100                __mempcpy_chk_sse2_unaligned
                0x0000000000025110                __mempcpy_sse2_unaligned
                0x0000000000025120                __memcpy_chk_sse2_unaligned
                0x0000000000025120                __memmove_chk_sse2_unaligned
                0x0000000000025130                __memmove_sse2_unaligned
                0x0000000000025130                __SI__memmove_sse2_unaligned_0
                0x0000000000025130                __memcpy_sse2_unaligned
                0x0000000000025130                memcpy@GLIBC_2.2.5
                0x0000000000025160                __mempcpy_chk_erms
                0x0000000000025170                __mempcpy_erms
                0x0000000000025190                __memcpy_chk_erms
                0x0000000000025190                __memmove_chk_erms
                0x00000000000251a0                __memmove_erms
                0x00000000000251a0                __memcpy_erms
                0x00000000000251e0                __mempcpy_chk_sse2_unaligned_erms
                0x00000000000251f0                __mempcpy_sse2_unaligned_erms
                0x0000000000025200                __memmove_chk_sse2_unaligned_erms
                0x0000000000025200                __memcpy_chk_sse2_unaligned_erms
                0x0000000000025210                __memmove_sse2_unaligned_erms
                0x0000000000025210                __memcpy_sse2_unaligned_erms
 .text          0x0000000000025792        0x0 /home/mritunjya/rooms/cryptography/crypto-hack/crackmes-one/glibc-2.34/build/libc_pic.a(memmove-avx-unaligned-erms.os)
 .text          0x0000000000025792        0x0 /home/mritunjya/rooms/cryptography/crypto-hack/crackmes-one/glibc-2.34/build/libc_pic.a(memmove-avx512-unaligned-erms.os)
 *fill*         0x0000000000025792        0xe 
 .text          0x00000000000257a0      0x1d2 /home/mritunjya/rooms/cryptography/crypto-hack/crackmes-one/glibc-2.34/build/libc_pic.a(memset-sse2-unaligned-erms.os)
                0x00000000000257a0                __bzero
                0x00000000000257a0                bzero
                0x00000000000257b0                __wmemset_chk_sse2_unaligned
                0x00000000000257c0                __wmemset_sse2_unaligned
                0x00000000000257e0                __memset_chk_sse2_unaligned
                0x00000000000257f0                __memset_sse2_unaligned
                0x0000000000025830                __memset_chk_erms
                0x0000000000025840                __memset_erms
                0x0000000000025860                __memset_chk_sse2_unaligned_erms
                0x0000000000025870                __memset_sse2_unaligned_erms
 .text          0x0000000000025972        0x0 /home/mritunjya/rooms/cryptography/crypto-hack/crackmes-one/glibc-2.34/build/libc_pic.a(memset-avx2-unaligned-erms.os)
 .text          0x0000000000025972        0x0 /home/mritunjya/rooms/cryptography/crypto-hack/crackmes-one/glibc-2.34/build/libc_pic.a(memset-avx512-unaligned-erms.os)
 .text          0x0000000000025972        0x0 /home/mritunjya/rooms/cryptography/crypto-hack/crackmes-one/glibc-2.34/build/libc_pic.a(memchr-avx2-rtm.os)
 .text          0x0000000000025972        0x0 /home/mritunjya/rooms/cryptography/crypto-hack/crackmes-one/glibc-2.34/build/libc_pic.a(memcmp-avx2-movbe-rtm.os)
 .text          0x0000000000025972        0x0 /home/mritunjya/rooms/cryptography/crypto-hack/crackmes-one/glibc-2.34/build/libc_pic.a(memmove-avx-unaligned-erms-rtm.os)
 .text          0x0000000000025972        0x0 /home/mritunjya/rooms/cryptography/crypto-hack/crackmes-one/glibc-2.34/build/libc_pic.a(memset-avx2-unaligned-erms-rtm.os)
 .text          0x0000000000025972        0x0 /home/mritunjya/rooms/cryptography/crypto-hack/crackmes-one/glibc-2.34/build/libc_pic.a(rawmemchr-avx2-rtm.os)
 .text          0x0000000000025972        0x0 /home/mritunjya/rooms/cryptography/crypto-hack/crackmes-one/glibc-2.34/build/libc_pic.a(strchr-avx2-rtm.os)
 .text          0x0000000000025972        0x0 /home/mritunjya/rooms/cryptography/crypto-hack/crackmes-one/glibc-2.34/build/libc_pic.a(strcmp-avx2-rtm.os)
 .text          0x0000000000025972        0x0 /home/mritunjya/rooms/cryptography/crypto-hack/crackmes-one/glibc-2.34/build/libc_pic.a(stpcpy-avx2-rtm.os)
 .text          0x0000000000025972        0x0 /home/mritunjya/rooms/cryptography/crypto-hack/crackmes-one/glibc-2.34/build/libc_pic.a(strlen-avx2-rtm.os)
 .text          0x0000000000025972        0x0 /home/mritunjya/rooms/cryptography/crypto-hack/crackmes-one/glibc-2.34/build/libc_pic.a(strncmp-avx2-rtm.os)
 .text          0x0000000000025972        0x0 /home/mritunjya/rooms/cryptography/crypto-hack/crackmes-one/glibc-2.34/build/libc_pic.a(strnlen-avx2-rtm.os)
 .text          0x0000000000025972        0x0 /home/mritunjya/rooms/cryptography/crypto-hack/crackmes-one/glibc-2.34/build/libc_pic.a(memchr-evex.os)
 .text          0x0000000000025972        0x0 /home/mritunjya/rooms/cryptography/crypto-hack/crackmes-one/glibc-2.34/build/libc_pic.a(memcmp-evex-movbe.os)
 .text          0x0000000000025972        0x0 /home/mritunjya/rooms/cryptography/crypto-hack/crackmes-one/glibc-2.34/build/libc_pic.a(memmove-evex-unaligned-erms.os)
 .text          0x0000000000025972        0x0 /home/mritunjya/rooms/cryptography/crypto-hack/crackmes-one/glibc-2.34/build/libc_pic.a(memset-evex-unaligned-erms.os)
 .text          0x0000000000025972        0x0 /home/mritunjya/rooms/cryptography/crypto-hack/crackmes-one/glibc-2.34/build/libc_pic.a(rawmemchr-evex.os)
 .text          0x0000000000025972        0x0 /home/mritunjya/rooms/cryptography/crypto-hack/crackmes-one/glibc-2.34/build/libc_pic.a(stpcpy-evex.os)
 .text          0x0000000000025972        0x0 /home/mritunjya/rooms/cryptography/crypto-hack/crackmes-one/glibc-2.34/build/libc_pic.a(strchr-evex.os)
 .text          0x0000000000025972        0x0 /home/mritunjya/rooms/cryptography/crypto-hack/crackmes-one/glibc-2.34/build/libc_pic.a(strcmp-evex.os)
 .text          0x0000000000025972        0x0 /home/mritunjya/rooms/cryptography/crypto-hack/crackmes-one/glibc-2.34/build/libc_pic.a(strlen-evex.os)
 .text          0x0000000000025972        0x0 /home/mritunjya/rooms/cryptography/crypto-hack/crackmes-one/glibc-2.34/build/libc_pic.a(strncmp-evex.os)
 .text          0x0000000000025972        0x0 /home/mritunjya/rooms/cryptography/crypto-hack/crackmes-one/glibc-2.34/build/libc_pic.a(strnlen-evex.os)
 .text          0x0000000000025972        0x0 /home/mritunjya/rooms/cryptography/crypto-hack/crackmes-one/glibc-2.34/build/libc_pic.a(memchr-evex-rtm.os)
 .text          0x0000000000025972        0x0 /home/mritunjya/rooms/cryptography/crypto-hack/crackmes-one/glibc-2.34/build/libc_pic.a(rawmemchr-evex-rtm.os)
 *fill*         0x0000000000025972        0xe 
 .text          0x0000000000025980      0x188 /home/mritunjya/rooms/cryptography/crypto-hack/crackmes-one/glibc-2.34/build/libc_pic.a(cacheinfo.os)
                0x0000000000025980                __x86_cacheinfo
                0x0000000000025a10                __cache_sysconf
 *fill*         0x0000000000025b08        0x8 
 .text          0x0000000000025b10       0x2d /home/mritunjya/rooms/cryptography/crypto-hack/crackmes-one/glibc-2.34/build/libc_pic.a(closedir.os)
                0x0000000000025b10                __closedir
                0x0000000000025b10                closedir
 *fill*         0x0000000000025b3d        0x3 
 .text          0x0000000000025b40       0x7e /home/mritunjya/rooms/cryptography/crypto-hack/crackmes-one/glibc-2.34/build/libc_pic.a(rewinddir.os)
                0x0000000000025b40                rewinddir
                0x0000000000025b40                __rewinddir
                0x0000000000025b40                __GI___rewinddir
 *fill*         0x0000000000025bbe        0x2 
 .text          0x0000000000025bc0       0xf0 /home/mritunjya/rooms/cryptography/crypto-hack/crackmes-one/glibc-2.34/build/libc_pic.a(readdir64.os)
                0x0000000000025bc0                readdir
                0x0000000000025bc0                __readdir64
                0x0000000000025bc0                __readdir
                0x0000000000025bc0                __GI___readdir64
                0x0000000000025bc0                readdir64
 .text          0x0000000000025cb0       0x9a /home/mritunjya/rooms/cryptography/crypto-hack/crackmes-one/glibc-2.34/build/libc_pic.a(fdopendir.os)
                0x0000000000025cb0                fdopendir
                0x0000000000025cb0                __fdopendir
 *fill*         0x0000000000025d4a        0x6 
 .text          0x0000000000025d50       0x25 /home/mritunjya/rooms/cryptography/crypto-hack/crackmes-one/glibc-2.34/build/libc_pic.a(uname.os)
                0x0000000000025d50                uname
                0x0000000000025d50                __GI_uname
                0x0000000000025d50                __uname
                0x0000000000025d50                __GI___uname
 *fill*         0x0000000000025d75        0xb 
 .text          0x0000000000025d80       0x58 /home/mritunjya/rooms/cryptography/crypto-hack/crackmes-one/glibc-2.34/build/libc_pic.a(_exit.os)
                0x0000000000025d80                _Exit
                0x0000000000025d80                __GI__exit
                0x0000000000025d80                _exit
 *fill*         0x0000000000025dd8        0x8 
 .text          0x0000000000025de0        0xc /home/mritunjya/rooms/cryptography/crypto-hack/crackmes-one/glibc-2.34/build/libc_pic.a(getpid.os)
                0x0000000000025de0                __getpid
                0x0000000000025de0                getpid
                0x0000000000025de0                __GI_getpid
                0x0000000000025de0                __GI___getpid
 .text          0x0000000000025dec        0x0 /home/mritunjya/rooms/cryptography/crypto-hack/crackmes-one/glibc-2.34/build/libc_pic.a(environ.os)
 *fill*         0x0000000000025dec        0x4 
 .text          0x0000000000025df0       0x16 /home/mritunjya/rooms/cryptography/crypto-hack/crackmes-one/glibc-2.34/build/libc_pic.a(stat64.os)
                0x0000000000025df0                stat64
                0x0000000000025df0                __stat
                0x0000000000025df0                __stat64
                0x0000000000025df0                stat
                0x0000000000025df0                __GI___stat64
 *fill*         0x0000000000025e06        0xa 
 .text          0x0000000000025e10       0x34 /home/mritunjya/rooms/cryptography/crypto-hack/crackmes-one/glibc-2.34/build/libc_pic.a(fstat64.os)
                0x0000000000025e10                __GI___fstat64
                0x0000000000025e10                fstat64
                0x0000000000025e10                fstat
                0x0000000000025e10                __fstat64
                0x0000000000025e10                __fstat
 *fill*         0x0000000000025e44        0xc 
 .text          0x0000000000025e50       0x19 /home/mritunjya/rooms/cryptography/crypto-hack/crackmes-one/glibc-2.34/build/libc_pic.a(lstat64.os)
                0x0000000000025e50                __lstat64
                0x0000000000025e50                lstat
                0x0000000000025e50                lstat64
                0x0000000000025e50                __GI___lstat64
                0x0000000000025e50                __lstat
 *fill*         0x0000000000025e69        0x7 
 .text          0x0000000000025e70       0x32 /home/mritunjya/rooms/cryptography/crypto-hack/crackmes-one/glibc-2.34/build/libc_pic.a(fstatat64.os)
                0x0000000000025e70                fstatat
                0x0000000000025e70                __fstatat
                0x0000000000025e70                fstatat64
                0x0000000000025e70                __fstatat64
                0x0000000000025e70                __GI___fstatat
                0x0000000000025e70                __GI___fstatat64
 *fill*         0x0000000000025ea2        0xe 
 .text          0x0000000000025eb0      0x103 /home/mritunjya/rooms/cryptography/crypto-hack/crackmes-one/glibc-2.34/build/libc_pic.a(openat64.os)
                0x0000000000025eb0                __openat64
                0x0000000000025eb0                __GI___openat
                0x0000000000025eb0                __GI___openat64
                0x0000000000025eb0                __libc_openat64
                0x0000000000025eb0                __openat
                0x0000000000025eb0                openat
 *fill*         0x0000000000025fb3        0xd 
 .text          0x0000000000025fc0       0x2c /home/mritunjya/rooms/cryptography/crypto-hack/crackmes-one/glibc-2.34/build/libc_pic.a(lseek64.os)
                0x0000000000025fc0                __GI___lseek
                0x0000000000025fc0                __lseek64
                0x0000000000025fc0                lseek
                0x0000000000025fc0                __libc_lseek64
                0x0000000000025fc0                llseek@GLIBC_2.2.5
                0x0000000000025fc0                __lseek
                0x0000000000025fc0                __SI__lseek64_0
                0x0000000000025fc0                __libc_lseek
                0x0000000000025fc0                lseek64
 *fill*         0x0000000000025fec        0x4 
 .text          0x0000000000025ff0       0x2a /home/mritunjya/rooms/cryptography/crypto-hack/crackmes-one/glibc-2.34/build/libc_pic.a(access.os)
                0x0000000000025ff0                __GI___access
                0x0000000000025ff0                access
                0x0000000000025ff0                __access
 *fill*         0x000000000002601a        0x6 
 .text          0x0000000000026020       0x2a /home/mritunjya/rooms/cryptography/crypto-hack/crackmes-one/glibc-2.34/build/libc_pic.a(close_nocancel.os)
                0x0000000000026020                __GI___close_nocancel
                0x0000000000026020                __close_nocancel
 *fill*         0x000000000002604a        0x6 
 .text          0x0000000000026050       0x93 /home/mritunjya/rooms/cryptography/crypto-hack/crackmes-one/glibc-2.34/build/libc_pic.a(fcntl_nocancel.os)
                0x0000000000026050                __fcntl64_nocancel_adjusted
                0x00000000000260b0                __fcntl64_nocancel
                0x00000000000260b0                __GI___fcntl64_nocancel
 *fill*         0x00000000000260e3        0xd 
 .text          0x00000000000260f0       0x7a /home/mritunjya/rooms/cryptography/crypto-hack/crackmes-one/glibc-2.34/build/libc_pic.a(open64_nocancel.os)
                0x00000000000260f0                __GI___open_nocancel
                0x00000000000260f0                __open_nocancel
                0x00000000000260f0                __GI___open64_nocancel
                0x00000000000260f0                __open64_nocancel
 *fill*         0x000000000002616a        0x6 
 .text          0x0000000000026170       0x2c /home/mritunjya/rooms/cryptography/crypto-hack/crackmes-one/glibc-2.34/build/libc_pic.a(read_nocancel.os)
                0x0000000000026170                __read_nocancel
                0x0000000000026170                __GI___read_nocancel
 *fill*         0x000000000002619c        0x4 
 .text          0x00000000000261a0       0x34 /home/mritunjya/rooms/cryptography/crypto-hack/crackmes-one/glibc-2.34/build/libc_pic.a(pread64_nocancel.os)
                0x00000000000261a0                __GI___pread64_nocancel
                0x00000000000261a0                __pread64_nocancel
 *fill*         0x00000000000261d4        0xc 
 .text          0x00000000000261e0       0x2c /home/mritunjya/rooms/cryptography/crypto-hack/crackmes-one/glibc-2.34/build/libc_pic.a(write_nocancel.os)
                0x00000000000261e0                __GI___write_nocancel
                0x00000000000261e0                __write_nocancel
 *fill*         0x000000000002620c        0x4 
 .text          0x0000000000026210       0xe0 /home/mritunjya/rooms/cryptography/crypto-hack/crackmes-one/glibc-2.34/build/libc_pic.a(mmap64.os)
                0x0000000000026210                __GI___mmap
                0x0000000000026210                __mmap
                0x0000000000026210                mmap
                0x0000000000026210                __GI___mmap64
                0x0000000000026210                __mmap64
                0x0000000000026210                mmap64
 .text          0x00000000000262f0       0x25 /home/mritunjya/rooms/cryptography/crypto-hack/crackmes-one/glibc-2.34/build/libc_pic.a(munmap.os)
                0x00000000000262f0                munmap
                0x00000000000262f0                __GI___munmap
                0x00000000000262f0                __GI_munmap
                0x00000000000262f0                __munmap
 *fill*         0x0000000000026315        0xb 
 .text          0x0000000000026320       0x25 /home/mritunjya/rooms/cryptography/crypto-hack/crackmes-one/glibc-2.34/build/libc_pic.a(mprotect.os)
                0x0000000000026320                __mprotect
                0x0000000000026320                __GI___mprotect
                0x0000000000026320                __GI_mprotect
                0x0000000000026320                mprotect
 *fill*         0x0000000000026345        0xb 
 .text          0x0000000000026350      0x1b7 /home/mritunjya/rooms/cryptography/crypto-hack/crackmes-one/glibc-2.34/build/libc_pic.a(profil.os)
                0x00000000000263a0                __profil
                0x00000000000263a0                profil
 *fill*         0x0000000000026507        0x9 
 .text          0x0000000000026510        0xf /home/mritunjya/rooms/cryptography/crypto-hack/crackmes-one/glibc-2.34/build/libc_pic.a(prof-freq.os)
                0x0000000000026510                __GI___profile_frequency
                0x0000000000026510                __profile_frequency
 *fill*         0x000000000002651f        0x1 
 .text          0x0000000000026520       0x5b /home/mritunjya/rooms/cryptography/crypto-hack/crackmes-one/glibc-2.34/build/libc_pic.a(dl-addr-obj.os)
                0x0000000000026520                _dl_addr_inside_object
 *fill*         0x000000000002657b        0x5 
 .text          0x0000000000026580       0x34 /home/mritunjya/rooms/cryptography/crypto-hack/crackmes-one/glibc-2.34/build/libc_pic.a(sigaction.os)
                0x0000000000026580                sigaction
                0x0000000000026580                __GI___sigaction
                0x0000000000026580                __sigaction
 *fill*         0x00000000000265b4        0xc 
 .text          0x00000000000265c0      0x1b3 /home/mritunjya/rooms/cryptography/crypto-hack/crackmes-one/glibc-2.34/build/libc_pic.a(libc_sigaction.os)
                0x00000000000265e0                __libc_sigaction
                0x00000000000265e0                __GI___libc_sigaction
 *fill*         0x0000000000026773        0xd 
 .text          0x0000000000026780       0x2a /home/mritunjya/rooms/cryptography/crypto-hack/crackmes-one/glibc-2.34/build/libc_pic.a(setitimer.os)
                0x0000000000026780                setitimer
                0x0000000000026780                __setitimer
 *fill*         0x00000000000267aa        0x6 
 .text          0x00000000000267b0       0x3c /home/mritunjya/rooms/cryptography/crypto-hack/crackmes-one/glibc-2.34/build/libc_pic.a(getdents64.os)
                0x00000000000267b0                __getdents
                0x00000000000267b0                __GI___getdents64
                0x00000000000267b0                getdents64
                0x00000000000267b0                __getdents64
 *(.gnu.warning)

.text.ssse3     0x0000000000000000     0xedb3
 .text.ssse3    0x0000000000000000     0x1269 /home/mritunjya/rooms/cryptography/crypto-hack/crackmes-one/glibc-2.34/build/libc_pic.a(strcmp-ssse3.os)
                0x0000000000000000                __GI___strcmp_ssse3
                0x0000000000000000                __strcmp_ssse3
 *fill*         0x0000000000001269        0x7 
 .text.ssse3    0x0000000000001270     0x1769 /home/mritunjya/rooms/cryptography/crypto-hack/crackmes-one/glibc-2.34/build/libc_pic.a(strncmp-ssse3.os)
                0x0000000000001270                __strncmp_ssse3
 *fill*         0x00000000000029d9        0x7 
 .text.ssse3    0x00000000000029e0     0x29f7 /home/mritunjya/rooms/cryptography/crypto-hack/crackmes-one/glibc-2.34/build/libc_pic.a(memcpy-ssse3.os)
                0x00000000000029e0                __mempcpy_chk_ssse3
                0x00000000000029f0                __mempcpy_ssse3
                0x0000000000002a00                __memcpy_chk_ssse3
                0x0000000000002a10                __memcpy_ssse3
 *fill*         0x00000000000053d7        0x9 
 .text.ssse3    0x00000000000053e0     0x2b88 /home/mritunjya/rooms/cryptography/crypto-hack/crackmes-one/glibc-2.34/build/libc_pic.a(memmove-ssse3.os)
                0x00000000000053e0                __memmove_chk_ssse3
                0x00000000000053f0                __memmove_ssse3
 *fill*         0x0000000000007f68        0x8 
 .text.ssse3    0x0000000000007f70     0x2b06 /home/mritunjya/rooms/cryptography/crypto-hack/crackmes-one/glibc-2.34/build/libc_pic.a(memcpy-ssse3-back.os)
                0x0000000000007f70                __mempcpy_chk_ssse3_back
                0x0000000000007f80                __mempcpy_ssse3_back
                0x0000000000007f90                __memcpy_chk_ssse3_back
                0x0000000000007fa0                __memcpy_ssse3_back
 *fill*         0x000000000000aa76        0xa 
 .text.ssse3    0x000000000000aa80     0x2b26 /home/mritunjya/rooms/cryptography/crypto-hack/crackmes-one/glibc-2.34/build/libc_pic.a(memmove-ssse3-back.os)
                0x000000000000aa80                __memmove_chk_ssse3_back
                0x000000000000aa90                __memmove_ssse3_back
 *fill*         0x000000000000d5a6        0xa 
 .text.ssse3    0x000000000000d5b0     0x1803 /home/mritunjya/rooms/cryptography/crypto-hack/crackmes-one/glibc-2.34/build/libc_pic.a(stpcpy-ssse3.os)
                0x000000000000d5b0                __stpcpy_ssse3

.text.avx       0x0000000000000000     0x2561
 .text.avx      0x0000000000000000      0x43f /home/mritunjya/rooms/cryptography/crypto-hack/crackmes-one/glibc-2.34/build/libc_pic.a(strcmp-avx2.os)
                0x0000000000000000                __strcmp_avx2
 *fill*         0x000000000000043f        0x1 
 .text.avx      0x0000000000000440      0x528 /home/mritunjya/rooms/cryptography/crypto-hack/crackmes-one/glibc-2.34/build/libc_pic.a(strncmp-avx2.os)
                0x0000000000000440                __strncmp_avx2
 *fill*         0x0000000000000968       0x18 
 .text.avx      0x0000000000000980      0x2cf /home/mritunjya/rooms/cryptography/crypto-hack/crackmes-one/glibc-2.34/build/libc_pic.a(memchr-avx2.os)
                0x0000000000000980                __memchr_avx2
 *fill*         0x0000000000000c4f        0x1 
 .text.avx      0x0000000000000c50      0x16f /home/mritunjya/rooms/cryptography/crypto-hack/crackmes-one/glibc-2.34/build/libc_pic.a(rawmemchr-avx2.os)
                0x0000000000000c50                __rawmemchr_avx2
 *fill*         0x0000000000000dbf        0x1 
 .text.avx      0x0000000000000dc0      0x43d /home/mritunjya/rooms/cryptography/crypto-hack/crackmes-one/glibc-2.34/build/libc_pic.a(memcmp-avx2-movbe.os)
                0x0000000000000dc0                __memcmp_avx2_movbe
 *fill*         0x00000000000011fd        0x3 
 .text.avx      0x0000000000001200      0x271 /home/mritunjya/rooms/cryptography/crypto-hack/crackmes-one/glibc-2.34/build/libc_pic.a(strchr-avx2.os)
                0x0000000000001200                __strchr_avx2
 *fill*         0x0000000000001471        0xf 
 .text.avx      0x0000000000001480      0x172 /home/mritunjya/rooms/cryptography/crypto-hack/crackmes-one/glibc-2.34/build/libc_pic.a(strlen-avx2.os)
                0x0000000000001480                __strlen_avx2
 *fill*         0x00000000000015f2        0xe 
 .text.avx      0x0000000000001600      0x2ce /home/mritunjya/rooms/cryptography/crypto-hack/crackmes-one/glibc-2.34/build/libc_pic.a(strnlen-avx2.os)
                0x0000000000001600                __strnlen_avx2
 *fill*         0x00000000000018ce        0x2 
 .text.avx      0x00000000000018d0      0x3ac /home/mritunjya/rooms/cryptography/crypto-hack/crackmes-one/glibc-2.34/build/libc_pic.a(stpcpy-avx2.os)
                0x00000000000018d0                __stpcpy_avx2
 *fill*         0x0000000000001c7c        0x4 
 .text.avx      0x0000000000001c80      0x72e /home/mritunjya/rooms/cryptography/crypto-hack/crackmes-one/glibc-2.34/build/libc_pic.a(memmove-avx-unaligned-erms.os)
                0x0000000000001c80                __mempcpy_chk_avx_unaligned
                0x0000000000001c90                __mempcpy_avx_unaligned
                0x0000000000001ca0                __memcpy_chk_avx_unaligned
                0x0000000000001ca0                __memmove_chk_avx_unaligned
                0x0000000000001cb0                __memcpy_avx_unaligned
                0x0000000000001cb0                __memmove_avx_unaligned
                0x0000000000001cf0                __mempcpy_chk_avx_unaligned_erms
                0x0000000000001d00                __mempcpy_avx_unaligned_erms
                0x0000000000001d10                __memmove_chk_avx_unaligned_erms
                0x0000000000001d10                __memcpy_chk_avx_unaligned_erms
                0x0000000000001d20                __memcpy_avx_unaligned_erms
                0x0000000000001d20                __memmove_avx_unaligned_erms
 *fill*         0x00000000000023ae        0x2 
 .text.avx      0x00000000000023b0      0x1b1 /home/mritunjya/rooms/cryptography/crypto-hack/crackmes-one/glibc-2.34/build/libc_pic.a(memset-avx2-unaligned-erms.os)
                0x00000000000023b0                __wmemset_chk_avx2_unaligned
                0x00000000000023c0                __wmemset_avx2_unaligned
                0x00000000000023e0                __memset_chk_avx2_unaligned
                0x00000000000023f0                __memset_avx2_unaligned
                0x0000000000002420                __memset_avx2_erms
                0x0000000000002440                __memset_chk_avx2_unaligned_erms
                0x0000000000002450                __memset_avx2_unaligned_erms

.text.sse4.2    0x0000000000000000     0x1157
 .text.sse4.2   0x0000000000000000      0xfd9 /home/mritunjya/rooms/cryptography/crypto-hack/crackmes-one/glibc-2.34/build/libc_pic.a(strncmp-sse4_2.os)
                0x0000000000000000                __strncmp_sse42
 *fill*         0x0000000000000fd9        0x7 
 .text.sse4.2   0x0000000000000fe0      0x177 /home/mritunjya/rooms/cryptography/crypto-hack/crackmes-one/glibc-2.34/build/libc_pic.a(strcspn-c.os)
                0x0000000000000fe0                __strcspn_sse42

.text.sse4.1    0x0000000000000000     0x163e
 .text.sse4.1   0x0000000000000000     0x163e /home/mritunjya/rooms/cryptography/crypto-hack/crackmes-one/glibc-2.34/build/libc_pic.a(memcmp-sse4.os)
                0x0000000000000000                __memcmp_sse4_1

.text.avx512    0x0000000000000000      0x9f4
 .text.avx512   0x0000000000000000      0x76f /home/mritunjya/rooms/cryptography/crypto-hack/crackmes-one/glibc-2.34/build/libc_pic.a(memmove-avx512-no-vzeroupper.os)
                0x0000000000000000                __mempcpy_chk_avx512_no_vzeroupper
                0x0000000000000010                __mempcpy_avx512_no_vzeroupper
                0x0000000000000020                __memcpy_chk_avx512_no_vzeroupper
                0x0000000000000020                __memmove_chk_avx512_no_vzeroupper
                0x0000000000000030                __memcpy_avx512_no_vzeroupper
                0x0000000000000030                __memmove_avx512_no_vzeroupper
 *fill*         0x000000000000076f        0x1 
 .text.avx512   0x0000000000000770      0x284 /home/mritunjya/rooms/cryptography/crypto-hack/crackmes-one/glibc-2.34/build/libc_pic.a(memset-avx512-no-vzeroupper.os)
                0x0000000000000770                __memset_chk_avx512_no_vzeroupper
                0x0000000000000780                __memset_avx512_no_vzeroupper

.text.atom      0x0000000000000000     0x1a83
 .text.atom     0x0000000000000000      0x315 /home/mritunjya/rooms/cryptography/crypto-hack/crackmes-one/glibc-2.34/build/libc_pic.a(strchr-sse2-no-bsf.os)
                0x0000000000000000                __strchr_sse2_no_bsf
 *fill*         0x0000000000000315        0xb 
 .text.atom     0x0000000000000320     0x1763 /home/mritunjya/rooms/cryptography/crypto-hack/crackmes-one/glibc-2.34/build/libc_pic.a(memcmp-ssse3.os)
                0x0000000000000320                __memcmp_ssse3

.text.evex512   0x0000000000000000      0xa6b
 .text.evex512  0x0000000000000000      0x860 /home/mritunjya/rooms/cryptography/crypto-hack/crackmes-one/glibc-2.34/build/libc_pic.a(memmove-avx512-unaligned-erms.os)
                0x0000000000000000                __mempcpy_chk_avx512_unaligned
                0x0000000000000010                __mempcpy_avx512_unaligned
                0x0000000000000020                __memcpy_chk_avx512_unaligned
                0x0000000000000020                __memmove_chk_avx512_unaligned
                0x0000000000000030                __memmove_avx512_unaligned
                0x0000000000000030                __memcpy_avx512_unaligned
                0x0000000000000070                __mempcpy_chk_avx512_unaligned_erms
                0x0000000000000080                __mempcpy_avx512_unaligned_erms
                0x0000000000000090                __memcpy_chk_avx512_unaligned_erms
                0x0000000000000090                __memmove_chk_avx512_unaligned_erms
                0x00000000000000a0                __memmove_avx512_unaligned_erms
                0x00000000000000a0                __memcpy_avx512_unaligned_erms
 .text.evex512  0x0000000000000860      0x20b /home/mritunjya/rooms/cryptography/crypto-hack/crackmes-one/glibc-2.34/build/libc_pic.a(memset-avx512-unaligned-erms.os)
                0x0000000000000860                __wmemset_chk_avx512_unaligned
                0x0000000000000870                __wmemset_avx512_unaligned
                0x0000000000000890                __memset_chk_avx512_unaligned
                0x00000000000008a0                __memset_avx512_unaligned
                0x00000000000008d0                __memset_avx512_erms
                0x00000000000008f0                __memset_chk_avx512_unaligned_erms
                0x0000000000000900                __memset_avx512_unaligned_erms

.text.avx.rtm   0x0000000000000000     0x25fc
 .text.avx.rtm  0x0000000000000000      0x2c0 /home/mritunjya/rooms/cryptography/crypto-hack/crackmes-one/glibc-2.34/build/libc_pic.a(memchr-avx2-rtm.os)
                0x0000000000000000                __memchr_avx2_rtm
 .text.avx.rtm  0x00000000000002c0      0x43d /home/mritunjya/rooms/cryptography/crypto-hack/crackmes-one/glibc-2.34/build/libc_pic.a(memcmp-avx2-movbe-rtm.os)
                0x00000000000002c0                __memcmp_avx2_movbe_rtm
 *fill*         0x00000000000006fd        0x3 
 .text.avx.rtm  0x0000000000000700      0x73f /home/mritunjya/rooms/cryptography/crypto-hack/crackmes-one/glibc-2.34/build/libc_pic.a(memmove-avx-unaligned-erms-rtm.os)
                0x0000000000000700                __mempcpy_chk_avx_unaligned_rtm
                0x0000000000000710                __mempcpy_avx_unaligned_rtm
                0x0000000000000720                __memmove_chk_avx_unaligned_rtm
                0x0000000000000720                __memcpy_chk_avx_unaligned_rtm
                0x0000000000000730                __memcpy_avx_unaligned_rtm
                0x0000000000000730                __memmove_avx_unaligned_rtm
                0x0000000000000770                __mempcpy_chk_avx_unaligned_erms_rtm
                0x0000000000000780                __mempcpy_avx_unaligned_erms_rtm
                0x0000000000000790                __memcpy_chk_avx_unaligned_erms_rtm
                0x0000000000000790                __memmove_chk_avx_unaligned_erms_rtm
                0x00000000000007a0                __memmove_avx_unaligned_erms_rtm
                0x00000000000007a0                __memcpy_avx_unaligned_erms_rtm
 *fill*         0x0000000000000e3f        0x1 
 .text.avx.rtm  0x0000000000000e40      0x1c6 /home/mritunjya/rooms/cryptography/crypto-hack/crackmes-one/glibc-2.34/build/libc_pic.a(memset-avx2-unaligned-erms-rtm.os)
                0x0000000000000e40                __wmemset_chk_avx2_unaligned_rtm
                0x0000000000000e50                __wmemset_avx2_unaligned_rtm
                0x0000000000000e70                __memset_chk_avx2_unaligned_rtm
                0x0000000000000e80                __memset_avx2_unaligned_rtm
                0x0000000000000eb0                __memset_avx2_erms_rtm
                0x0000000000000ed0                __memset_chk_avx2_unaligned_erms_rtm
                0x0000000000000ee0                __memset_avx2_unaligned_erms_rtm
 *fill*         0x0000000000001006        0xa 
 .text.avx.rtm  0x0000000000001010      0x160 /home/mritunjya/rooms/cryptography/crypto-hack/crackmes-one/glibc-2.34/build/libc_pic.a(rawmemchr-avx2-rtm.os)
                0x0000000000001010                __rawmemchr_avx2_rtm
 *fill*         0x0000000000001170       0x10 
 .text.avx.rtm  0x0000000000001180      0x27a /home/mritunjya/rooms/cryptography/crypto-hack/crackmes-one/glibc-2.34/build/libc_pic.a(strchr-avx2-rtm.os)
                0x0000000000001180                __strchr_avx2_rtm
 *fill*         0x00000000000013fa        0x6 
 .text.avx.rtm  0x0000000000001400      0x470 /home/mritunjya/rooms/cryptography/crypto-hack/crackmes-one/glibc-2.34/build/libc_pic.a(strcmp-avx2-rtm.os)
                0x0000000000001400                __strcmp_avx2_rtm
 .text.avx.rtm  0x0000000000001870      0x3bd /home/mritunjya/rooms/cryptography/crypto-hack/crackmes-one/glibc-2.34/build/libc_pic.a(stpcpy-avx2-rtm.os)
                0x0000000000001870                __stpcpy_avx2_rtm
 *fill*         0x0000000000001c2d       0x13 
 .text.avx.rtm  0x0000000000001c40      0x16b /home/mritunjya/rooms/cryptography/crypto-hack/crackmes-one/glibc-2.34/build/libc_pic.a(strlen-avx2-rtm.os)
                0x0000000000001c40                __strlen_avx2_rtm
 *fill*         0x0000000000001dab        0x5 
 .text.avx.rtm  0x0000000000001db0      0x54d /home/mritunjya/rooms/cryptography/crypto-hack/crackmes-one/glibc-2.34/build/libc_pic.a(strncmp-avx2-rtm.os)
                0x0000000000001db0                __strncmp_avx2_rtm
 *fill*         0x00000000000022fd        0x3 
 .text.avx.rtm  0x0000000000002300      0x2fc /home/mritunjya/rooms/cryptography/crypto-hack/crackmes-one/glibc-2.34/build/libc_pic.a(strnlen-avx2-rtm.os)
                0x0000000000002300                __strnlen_avx2_rtm

.text.evex      0x0000000000000000     0x2b7e
 .text.evex     0x0000000000000000      0x2da /home/mritunjya/rooms/cryptography/crypto-hack/crackmes-one/glibc-2.34/build/libc_pic.a(memchr-evex.os)
                0x0000000000000000                __memchr_evex
 *fill*         0x00000000000002da        0x6 
 .text.evex     0x00000000000002e0      0x4bd /home/mritunjya/rooms/cryptography/crypto-hack/crackmes-one/glibc-2.34/build/libc_pic.a(memcmp-evex-movbe.os)
                0x00000000000002e0                __memcmp_evex_movbe
 *fill*         0x000000000000079d        0x3 
 .text.evex     0x00000000000007a0      0x84b /home/mritunjya/rooms/cryptography/crypto-hack/crackmes-one/glibc-2.34/build/libc_pic.a(memmove-evex-unaligned-erms.os)
                0x00000000000007a0                __mempcpy_chk_evex_unaligned
                0x00000000000007b0                __mempcpy_evex_unaligned
                0x00000000000007c0                __memcpy_chk_evex_unaligned
                0x00000000000007c0                __memmove_chk_evex_unaligned
                0x00000000000007d0                __memmove_evex_unaligned
                0x00000000000007d0                __memcpy_evex_unaligned
                0x0000000000000810                __mempcpy_chk_evex_unaligned_erms
                0x0000000000000820                __mempcpy_evex_unaligned_erms
                0x0000000000000830                __memcpy_chk_evex_unaligned_erms
                0x0000000000000830                __memmove_chk_evex_unaligned_erms
                0x0000000000000840                __memmove_evex_unaligned_erms
                0x0000000000000840                __memcpy_evex_unaligned_erms
 *fill*         0x0000000000000feb        0x5 
 .text.evex     0x0000000000000ff0      0x1f7 /home/mritunjya/rooms/cryptography/crypto-hack/crackmes-one/glibc-2.34/build/libc_pic.a(memset-evex-unaligned-erms.os)
                0x0000000000000ff0                __wmemset_chk_evex_unaligned
                0x0000000000001000                __wmemset_evex_unaligned
                0x0000000000001020                __memset_chk_evex_unaligned
                0x0000000000001030                __memset_evex_unaligned
                0x0000000000001060                __memset_evex_erms
                0x0000000000001080                __memset_chk_evex_unaligned_erms
                0x0000000000001090                __memset_evex_unaligned_erms
 *fill*         0x00000000000011e7       0x19 
 .text.evex     0x0000000000001200      0x17d /home/mritunjya/rooms/cryptography/crypto-hack/crackmes-one/glibc-2.34/build/libc_pic.a(rawmemchr-evex.os)
                0x0000000000001200                __rawmemchr_evex
 *fill*         0x000000000000137d        0x3 
 .text.evex     0x0000000000001380      0x447 /home/mritunjya/rooms/cryptography/crypto-hack/crackmes-one/glibc-2.34/build/libc_pic.a(stpcpy-evex.os)
                0x0000000000001380                __stpcpy_evex
 *fill*         0x00000000000017c7       0x19 
 .text.evex     0x00000000000017e0      0x28f /home/mritunjya/rooms/cryptography/crypto-hack/crackmes-one/glibc-2.34/build/libc_pic.a(strchr-evex.os)
                0x00000000000017e0                __strchr_evex
 *fill*         0x0000000000001a6f        0x1 
 .text.evex     0x0000000000001a70      0x5e2 /home/mritunjya/rooms/cryptography/crypto-hack/crackmes-one/glibc-2.34/build/libc_pic.a(strcmp-evex.os)
                0x0000000000001a70                __strcmp_evex
 *fill*         0x0000000000002052        0xe 
 .text.evex     0x0000000000002060      0x174 /home/mritunjya/rooms/cryptography/crypto-hack/crackmes-one/glibc-2.34/build/libc_pic.a(strlen-evex.os)
                0x0000000000002060                __strlen_evex
 *fill*         0x00000000000021d4        0xc 
 .text.evex     0x00000000000021e0      0x6cf /home/mritunjya/rooms/cryptography/crypto-hack/crackmes-one/glibc-2.34/build/libc_pic.a(strncmp-evex.os)
                0x00000000000021e0                __strncmp_evex
 *fill*         0x00000000000028af       0x11 
 .text.evex     0x00000000000028c0      0x2be /home/mritunjya/rooms/cryptography/crypto-hack/crackmes-one/glibc-2.34/build/libc_pic.a(strnlen-evex.os)
                0x00000000000028c0                __strnlen_evex

.text.evex.rtm  0x0000000000000000      0x49a
 .text.evex.rtm
                0x0000000000000000      0x2ea /home/mritunjya/rooms/cryptography/crypto-hack/crackmes-one/glibc-2.34/build/libc_pic.a(memchr-evex-rtm.os)
                0x0000000000000000                __memchr_evex_rtm
 *fill*         0x00000000000002ea       0x16 
 .text.evex.rtm
                0x0000000000000300      0x19a /home/mritunjya/rooms/cryptography/crypto-hack/crackmes-one/glibc-2.34/build/libc_pic.a(rawmemchr-evex-rtm.os)
                0x0000000000000300                __rawmemchr_evex_rtm

.fini
 *(SORT_NONE(.fini))

.rodata         0x0000000000000000     0x16d4
 *(.rodata)
 .rodata        0x0000000000000000     0x14f5 /home/mritunjya/rooms/cryptography/crypto-hack/crackmes-one/glibc-2.34/build/elf/dl-allobjs.os
                0x00000000000012d0                __GI__itoa_lower_digits
                0x00000000000012d0                _itoa_lower_digits
 *fill*         0x00000000000014f5        0x3 
 .rodata        0x00000000000014f8       0x40 /home/mritunjya/rooms/cryptography/crypto-hack/crackmes-one/glibc-2.34/build/libc_pic.a(strcmp-sse2.os)
 .rodata        0x0000000000001538       0x40 /home/mritunjya/rooms/cryptography/crypto-hack/crackmes-one/glibc-2.34/build/libc_pic.a(strcmp-ssse3.os)
 .rodata        0x0000000000001578       0x40 /home/mritunjya/rooms/cryptography/crypto-hack/crackmes-one/glibc-2.34/build/libc_pic.a(strncmp-sse2.os)
 .rodata        0x00000000000015b8       0x40 /home/mritunjya/rooms/cryptography/crypto-hack/crackmes-one/glibc-2.34/build/libc_pic.a(strncmp-ssse3.os)
 .rodata        0x00000000000015f8       0x80 /home/mritunjya/rooms/cryptography/crypto-hack/crackmes-one/glibc-2.34/build/libc_pic.a(stpcpy-sse2-unaligned.os)
 *fill*         0x0000000000001678        0x8 
 .rodata        0x0000000000001680       0x1f /home/mritunjya/rooms/cryptography/crypto-hack/crackmes-one/glibc-2.34/build/libc_pic.a(varshift.os)
                0x0000000000001680                ___m128i_shift_right
 *fill*         0x000000000000169f        0x1 
 .rodata        0x00000000000016a0       0x34 /home/mritunjya/rooms/cryptography/crypto-hack/crackmes-one/glibc-2.34/build/libc_pic.a(cacheinfo.os)

.rodata.str1.1  0x0000000000000000     0x1872
 .rodata.str1.1
                0x0000000000000000     0x185d /home/mritunjya/rooms/cryptography/crypto-hack/crackmes-one/glibc-2.34/build/elf/dl-allobjs.os
 .rodata.str1.1
                0x000000000000185d       0x14 /home/mritunjya/rooms/cryptography/crypto-hack/crackmes-one/glibc-2.34/build/libc_pic.a(check_fds.os)
 .rodata.str1.1
                0x0000000000001871        0x1 /home/mritunjya/rooms/cryptography/crypto-hack/crackmes-one/glibc-2.34/build/libc_pic.a(fstat64.os)

.rodata.str1.8  0x0000000000000000     0x304f
 .rodata.str1.8
                0x0000000000000000     0x3011 /home/mritunjya/rooms/cryptography/crypto-hack/crackmes-one/glibc-2.34/build/elf/dl-allobjs.os
 *fill*         0x0000000000003011        0x7 
 .rodata.str1.8
                0x0000000000003018       0x37 /home/mritunjya/rooms/cryptography/crypto-hack/crackmes-one/glibc-2.34/build/libc_pic.a(lowlevellock.os)

.rodata.str1.16
                0x0000000000000000      0x482
 .rodata.str1.16
                0x0000000000000000      0x482 /home/mritunjya/rooms/cryptography/crypto-hack/crackmes-one/glibc-2.34/build/elf/dl-allobjs.os
                0x0000000000000450                _dl_hwcaps_subdirs

.rodata.cst16   0x0000000000000000       0x20
 .rodata.cst16  0x0000000000000000       0x20 /home/mritunjya/rooms/cryptography/crypto-hack/crackmes-one/glibc-2.34/build/elf/dl-allobjs.os

.rodata.cst4    0x0000000000000000        0x4
 .rodata.cst4   0x0000000000000000        0x4 /home/mritunjya/rooms/cryptography/crypto-hack/crackmes-one/glibc-2.34/build/elf/dl-allobjs.os

.rodata.str1.32
                0x0000000000000000       0x9b
 .rodata.str1.32
                0x0000000000000000       0x9b /home/mritunjya/rooms/cryptography/crypto-hack/crackmes-one/glibc-2.34/build/elf/dl-allobjs.os

.rodata.sse4.2  0x0000000000000000       0x40
 .rodata.sse4.2
                0x0000000000000000       0x40 /home/mritunjya/rooms/cryptography/crypto-hack/crackmes-one/glibc-2.34/build/libc_pic.a(strncmp-sse4_2.os)

.rodata.sse4.1  0x0000000000000000      0x140
 .rodata.sse4.1
                0x0000000000000000      0x140 /home/mritunjya/rooms/cryptography/crypto-hack/crackmes-one/glibc-2.34/build/libc_pic.a(memcmp-sse4.os)

.rodata.ssse3   0x0000000000000000      0xd80
 .rodata.ssse3  0x0000000000000000      0x1c0 /home/mritunjya/rooms/cryptography/crypto-hack/crackmes-one/glibc-2.34/build/libc_pic.a(memcpy-ssse3.os)
 .rodata.ssse3  0x00000000000001c0      0x1c0 /home/mritunjya/rooms/cryptography/crypto-hack/crackmes-one/glibc-2.34/build/libc_pic.a(memmove-ssse3.os)
 .rodata.ssse3  0x0000000000000380      0x500 /home/mritunjya/rooms/cryptography/crypto-hack/crackmes-one/glibc-2.34/build/libc_pic.a(memcpy-ssse3-back.os)
 .rodata.ssse3  0x0000000000000880      0x500 /home/mritunjya/rooms/cryptography/crypto-hack/crackmes-one/glibc-2.34/build/libc_pic.a(memmove-ssse3-back.os)

.rodata1
 *(.rodata1)

.eh_frame_hdr
 *(.eh_frame_hdr)

.eh_frame       0x0000000000000000     0x4fbc
 *(.eh_frame)
 .eh_frame      0x0000000000000000     0x30c0 /home/mritunjya/rooms/cryptography/crypto-hack/crackmes-one/glibc-2.34/build/elf/dl-allobjs.os
                                       0x3130 (size before relaxing)
 .eh_frame      0x00000000000030c0       0x68 /home/mritunjya/rooms/cryptography/crypto-hack/crackmes-one/glibc-2.34/build/libc_pic.a(check_fds.os)
 .eh_frame      0x0000000000003128       0x30 /home/mritunjya/rooms/cryptography/crypto-hack/crackmes-one/glibc-2.34/build/libc_pic.a(setjmp.os)
 .eh_frame      0x0000000000003158       0x48 /home/mritunjya/rooms/cryptography/crypto-hack/crackmes-one/glibc-2.34/build/libc_pic.a(__longjmp.os)
 .eh_frame      0x00000000000031a0       0x70 /home/mritunjya/rooms/cryptography/crypto-hack/crackmes-one/glibc-2.34/build/libc_pic.a(lowlevellock.os)
 .eh_frame      0x0000000000003210       0x60 /home/mritunjya/rooms/cryptography/crypto-hack/crackmes-one/glibc-2.34/build/libc_pic.a(scratch_buffer_set_array_size.os)
 .eh_frame      0x0000000000003270       0x30 /home/mritunjya/rooms/cryptography/crypto-hack/crackmes-one/glibc-2.34/build/libc_pic.a(strchr.os)
 .eh_frame      0x00000000000032a0       0x30 /home/mritunjya/rooms/cryptography/crypto-hack/crackmes-one/glibc-2.34/build/libc_pic.a(strcmp.os)
 .eh_frame      0x00000000000032d0       0x30 /home/mritunjya/rooms/cryptography/crypto-hack/crackmes-one/glibc-2.34/build/libc_pic.a(strcspn.os)
 .eh_frame      0x0000000000003300       0x50 /home/mritunjya/rooms/cryptography/crypto-hack/crackmes-one/glibc-2.34/build/libc_pic.a(strdup.os)
 .eh_frame      0x0000000000003350       0x30 /home/mritunjya/rooms/cryptography/crypto-hack/crackmes-one/glibc-2.34/build/libc_pic.a(strlen.os)
 .eh_frame      0x0000000000003380       0x30 /home/mritunjya/rooms/cryptography/crypto-hack/crackmes-one/glibc-2.34/build/libc_pic.a(strnlen.os)
 .eh_frame      0x00000000000033b0       0x30 /home/mritunjya/rooms/cryptography/crypto-hack/crackmes-one/glibc-2.34/build/libc_pic.a(strncmp.os)
 .eh_frame      0x00000000000033e0       0x30 /home/mritunjya/rooms/cryptography/crypto-hack/crackmes-one/glibc-2.34/build/libc_pic.a(memchr.os)
 .eh_frame      0x0000000000003410       0x30 /home/mritunjya/rooms/cryptography/crypto-hack/crackmes-one/glibc-2.34/build/libc_pic.a(memcmp.os)
 .eh_frame      0x0000000000003440       0x30 /home/mritunjya/rooms/cryptography/crypto-hack/crackmes-one/glibc-2.34/build/libc_pic.a(memmove.os)
 .eh_frame      0x0000000000003470       0x30 /home/mritunjya/rooms/cryptography/crypto-hack/crackmes-one/glibc-2.34/build/libc_pic.a(memset.os)
 .eh_frame      0x00000000000034a0       0x30 /home/mritunjya/rooms/cryptography/crypto-hack/crackmes-one/glibc-2.34/build/libc_pic.a(mempcpy.os)
 .eh_frame      0x00000000000034d0       0x30 /home/mritunjya/rooms/cryptography/crypto-hack/crackmes-one/glibc-2.34/build/libc_pic.a(stpcpy.os)
 .eh_frame      0x0000000000003500       0x30 /home/mritunjya/rooms/cryptography/crypto-hack/crackmes-one/glibc-2.34/build/libc_pic.a(memcpy.os)
 .eh_frame      0x0000000000003530       0x30 /home/mritunjya/rooms/cryptography/crypto-hack/crackmes-one/glibc-2.34/build/libc_pic.a(rawmemchr.os)
 .eh_frame      0x0000000000003560       0x30 /home/mritunjya/rooms/cryptography/crypto-hack/crackmes-one/glibc-2.34/build/libc_pic.a(strcmp-sse2.os)
 .eh_frame      0x0000000000003590       0x30 /home/mritunjya/rooms/cryptography/crypto-hack/crackmes-one/glibc-2.34/build/libc_pic.a(strcmp-sse2-unaligned.os)
 .eh_frame      0x00000000000035c0       0x30 /home/mritunjya/rooms/cryptography/crypto-hack/crackmes-one/glibc-2.34/build/libc_pic.a(strcmp-ssse3.os)
 .eh_frame      0x00000000000035f0       0x30 /home/mritunjya/rooms/cryptography/crypto-hack/crackmes-one/glibc-2.34/build/libc_pic.a(strcmp-avx2.os)
 .eh_frame      0x0000000000003620       0x30 /home/mritunjya/rooms/cryptography/crypto-hack/crackmes-one/glibc-2.34/build/libc_pic.a(strncmp-sse2.os)
 .eh_frame      0x0000000000003650       0x30 /home/mritunjya/rooms/cryptography/crypto-hack/crackmes-one/glibc-2.34/build/libc_pic.a(strncmp-ssse3.os)
 .eh_frame      0x0000000000003680       0x30 /home/mritunjya/rooms/cryptography/crypto-hack/crackmes-one/glibc-2.34/build/libc_pic.a(strncmp-sse4_2.os)
 .eh_frame      0x00000000000036b0       0x30 /home/mritunjya/rooms/cryptography/crypto-hack/crackmes-one/glibc-2.34/build/libc_pic.a(strncmp-avx2.os)
 .eh_frame      0x00000000000036e0       0x30 /home/mritunjya/rooms/cryptography/crypto-hack/crackmes-one/glibc-2.34/build/libc_pic.a(memchr-sse2.os)
 .eh_frame      0x0000000000003710       0x30 /home/mritunjya/rooms/cryptography/crypto-hack/crackmes-one/glibc-2.34/build/libc_pic.a(rawmemchr-sse2.os)
 .eh_frame      0x0000000000003740       0x30 /home/mritunjya/rooms/cryptography/crypto-hack/crackmes-one/glibc-2.34/build/libc_pic.a(memchr-avx2.os)
 .eh_frame      0x0000000000003770       0x30 /home/mritunjya/rooms/cryptography/crypto-hack/crackmes-one/glibc-2.34/build/libc_pic.a(rawmemchr-avx2.os)
 .eh_frame      0x00000000000037a0       0x30 /home/mritunjya/rooms/cryptography/crypto-hack/crackmes-one/glibc-2.34/build/libc_pic.a(memcmp-sse2.os)
 .eh_frame      0x00000000000037d0       0x30 /home/mritunjya/rooms/cryptography/crypto-hack/crackmes-one/glibc-2.34/build/libc_pic.a(memcmp-avx2-movbe.os)
 .eh_frame      0x0000000000003800       0x30 /home/mritunjya/rooms/cryptography/crypto-hack/crackmes-one/glibc-2.34/build/libc_pic.a(memcmp-sse4.os)
 .eh_frame      0x0000000000003830       0x68 /home/mritunjya/rooms/cryptography/crypto-hack/crackmes-one/glibc-2.34/build/libc_pic.a(memcpy-ssse3.os)
 .eh_frame      0x0000000000003898       0x40 /home/mritunjya/rooms/cryptography/crypto-hack/crackmes-one/glibc-2.34/build/libc_pic.a(memmove-ssse3.os)
 .eh_frame      0x00000000000038d8       0x68 /home/mritunjya/rooms/cryptography/crypto-hack/crackmes-one/glibc-2.34/build/libc_pic.a(memcpy-ssse3-back.os)
 .eh_frame      0x0000000000003940       0x40 /home/mritunjya/rooms/cryptography/crypto-hack/crackmes-one/glibc-2.34/build/libc_pic.a(memmove-ssse3-back.os)
 .eh_frame      0x0000000000003980       0x68 /home/mritunjya/rooms/cryptography/crypto-hack/crackmes-one/glibc-2.34/build/libc_pic.a(memmove-avx512-no-vzeroupper.os)
 .eh_frame      0x00000000000039e8       0x30 /home/mritunjya/rooms/cryptography/crypto-hack/crackmes-one/glibc-2.34/build/libc_pic.a(strchr-sse2.os)
 .eh_frame      0x0000000000003a18       0x30 /home/mritunjya/rooms/cryptography/crypto-hack/crackmes-one/glibc-2.34/build/libc_pic.a(strchr-avx2.os)
 .eh_frame      0x0000000000003a48       0x30 /home/mritunjya/rooms/cryptography/crypto-hack/crackmes-one/glibc-2.34/build/libc_pic.a(strlen-sse2.os)
 .eh_frame      0x0000000000003a78       0x30 /home/mritunjya/rooms/cryptography/crypto-hack/crackmes-one/glibc-2.34/build/libc_pic.a(strnlen-sse2.os)
 .eh_frame      0x0000000000003aa8       0x30 /home/mritunjya/rooms/cryptography/crypto-hack/crackmes-one/glibc-2.34/build/libc_pic.a(strlen-avx2.os)
 .eh_frame      0x0000000000003ad8       0x30 /home/mritunjya/rooms/cryptography/crypto-hack/crackmes-one/glibc-2.34/build/libc_pic.a(strnlen-avx2.os)
 .eh_frame      0x0000000000003b08       0x30 /home/mritunjya/rooms/cryptography/crypto-hack/crackmes-one/glibc-2.34/build/libc_pic.a(stpcpy-sse2.os)
 .eh_frame      0x0000000000003b38       0x30 /home/mritunjya/rooms/cryptography/crypto-hack/crackmes-one/glibc-2.34/build/libc_pic.a(stpcpy-ssse3.os)
 .eh_frame      0x0000000000003b68       0x30 /home/mritunjya/rooms/cryptography/crypto-hack/crackmes-one/glibc-2.34/build/libc_pic.a(stpcpy-sse2-unaligned.os)
 .eh_frame      0x0000000000003b98       0x30 /home/mritunjya/rooms/cryptography/crypto-hack/crackmes-one/glibc-2.34/build/libc_pic.a(stpcpy-avx2.os)
 .eh_frame      0x0000000000003bc8       0x30 /home/mritunjya/rooms/cryptography/crypto-hack/crackmes-one/glibc-2.34/build/libc_pic.a(strchr-sse2-no-bsf.os)
 .eh_frame      0x0000000000003bf8       0x30 /home/mritunjya/rooms/cryptography/crypto-hack/crackmes-one/glibc-2.34/build/libc_pic.a(memcmp-ssse3.os)
 .eh_frame      0x0000000000003c28       0x38 /home/mritunjya/rooms/cryptography/crypto-hack/crackmes-one/glibc-2.34/build/libc_pic.a(strcspn-sse2.os)
 .eh_frame      0x0000000000003c60       0x30 /home/mritunjya/rooms/cryptography/crypto-hack/crackmes-one/glibc-2.34/build/libc_pic.a(strcspn-c.os)
 .eh_frame      0x0000000000003c90       0x40 /home/mritunjya/rooms/cryptography/crypto-hack/crackmes-one/glibc-2.34/build/libc_pic.a(memset-avx512-no-vzeroupper.os)
 .eh_frame      0x0000000000003cd0      0x108 /home/mritunjya/rooms/cryptography/crypto-hack/crackmes-one/glibc-2.34/build/libc_pic.a(memmove-sse2-unaligned-erms.os)
 .eh_frame      0x0000000000003dd8       0xb8 /home/mritunjya/rooms/cryptography/crypto-hack/crackmes-one/glibc-2.34/build/libc_pic.a(memmove-avx-unaligned-erms.os)
 .eh_frame      0x0000000000003e90       0xb8 /home/mritunjya/rooms/cryptography/crypto-hack/crackmes-one/glibc-2.34/build/libc_pic.a(memmove-avx512-unaligned-erms.os)
 .eh_frame      0x0000000000003f48       0xd0 /home/mritunjya/rooms/cryptography/crypto-hack/crackmes-one/glibc-2.34/build/libc_pic.a(memset-sse2-unaligned-erms.os)
 .eh_frame      0x0000000000004018       0xa8 /home/mritunjya/rooms/cryptography/crypto-hack/crackmes-one/glibc-2.34/build/libc_pic.a(memset-avx2-unaligned-erms.os)
 .eh_frame      0x00000000000040c0       0xa8 /home/mritunjya/rooms/cryptography/crypto-hack/crackmes-one/glibc-2.34/build/libc_pic.a(memset-avx512-unaligned-erms.os)
 .eh_frame      0x0000000000004168       0x30 /home/mritunjya/rooms/cryptography/crypto-hack/crackmes-one/glibc-2.34/build/libc_pic.a(memchr-avx2-rtm.os)
 .eh_frame      0x0000000000004198       0x30 /home/mritunjya/rooms/cryptography/crypto-hack/crackmes-one/glibc-2.34/build/libc_pic.a(memcmp-avx2-movbe-rtm.os)
 .eh_frame      0x00000000000041c8       0xb8 /home/mritunjya/rooms/cryptography/crypto-hack/crackmes-one/glibc-2.34/build/libc_pic.a(memmove-avx-unaligned-erms-rtm.os)
 .eh_frame      0x0000000000004280       0xa8 /home/mritunjya/rooms/cryptography/crypto-hack/crackmes-one/glibc-2.34/build/libc_pic.a(memset-avx2-unaligned-erms-rtm.os)
 .eh_frame      0x0000000000004328       0x30 /home/mritunjya/rooms/cryptography/crypto-hack/crackmes-one/glibc-2.34/build/libc_pic.a(rawmemchr-avx2-rtm.os)
 .eh_frame      0x0000000000004358       0x30 /home/mritunjya/rooms/cryptography/crypto-hack/crackmes-one/glibc-2.34/build/libc_pic.a(strchr-avx2-rtm.os)
 .eh_frame      0x0000000000004388       0x30 /home/mritunjya/rooms/cryptography/crypto-hack/crackmes-one/glibc-2.34/build/libc_pic.a(strcmp-avx2-rtm.os)
 .eh_frame      0x00000000000043b8       0x30 /home/mritunjya/rooms/cryptography/crypto-hack/crackmes-one/glibc-2.34/build/libc_pic.a(stpcpy-avx2-rtm.os)
 .eh_frame      0x00000000000043e8       0x30 /home/mritunjya/rooms/cryptography/crypto-hack/crackmes-one/glibc-2.34/build/libc_pic.a(strlen-avx2-rtm.os)
 .eh_frame      0x0000000000004418       0x30 /home/mritunjya/rooms/cryptography/crypto-hack/crackmes-one/glibc-2.34/build/libc_pic.a(strncmp-avx2-rtm.os)
 .eh_frame      0x0000000000004448       0x30 /home/mritunjya/rooms/cryptography/crypto-hack/crackmes-one/glibc-2.34/build/libc_pic.a(strnlen-avx2-rtm.os)
 .eh_frame      0x0000000000004478       0x30 /home/mritunjya/rooms/cryptography/crypto-hack/crackmes-one/glibc-2.34/build/libc_pic.a(memchr-evex.os)
 .eh_frame      0x00000000000044a8       0x30 /home/mritunjya/rooms/cryptography/crypto-hack/crackmes-one/glibc-2.34/build/libc_pic.a(memcmp-evex-movbe.os)
 .eh_frame      0x00000000000044d8       0xb8 /home/mritunjya/rooms/cryptography/crypto-hack/crackmes-one/glibc-2.34/build/libc_pic.a(memmove-evex-unaligned-erms.os)
 .eh_frame      0x0000000000004590       0xa8 /home/mritunjya/rooms/cryptography/crypto-hack/crackmes-one/glibc-2.34/build/libc_pic.a(memset-evex-unaligned-erms.os)
 .eh_frame      0x0000000000004638       0x30 /home/mritunjya/rooms/cryptography/crypto-hack/crackmes-one/glibc-2.34/build/libc_pic.a(rawmemchr-evex.os)
 .eh_frame      0x0000000000004668       0x30 /home/mritunjya/rooms/cryptography/crypto-hack/crackmes-one/glibc-2.34/build/libc_pic.a(stpcpy-evex.os)
 .eh_frame      0x0000000000004698       0x30 /home/mritunjya/rooms/cryptography/crypto-hack/crackmes-one/glibc-2.34/build/libc_pic.a(strchr-evex.os)
 .eh_frame      0x00000000000046c8       0x30 /home/mritunjya/rooms/cryptography/crypto-hack/crackmes-one/glibc-2.34/build/libc_pic.a(strcmp-evex.os)
 .eh_frame      0x00000000000046f8       0x30 /home/mritunjya/rooms/cryptography/crypto-hack/crackmes-one/glibc-2.34/build/libc_pic.a(strlen-evex.os)
 .eh_frame      0x0000000000004728       0x30 /home/mritunjya/rooms/cryptography/crypto-hack/crackmes-one/glibc-2.34/build/libc_pic.a(strncmp-evex.os)
 .eh_frame      0x0000000000004758       0x30 /home/mritunjya/rooms/cryptography/crypto-hack/crackmes-one/glibc-2.34/build/libc_pic.a(strnlen-evex.os)
 .eh_frame      0x0000000000004788       0x30 /home/mritunjya/rooms/cryptography/crypto-hack/crackmes-one/glibc-2.34/build/libc_pic.a(memchr-evex-rtm.os)
 .eh_frame      0x00000000000047b8       0x30 /home/mritunjya/rooms/cryptography/crypto-hack/crackmes-one/glibc-2.34/build/libc_pic.a(rawmemchr-evex-rtm.os)
 .eh_frame      0x00000000000047e8       0x40 /home/mritunjya/rooms/cryptography/crypto-hack/crackmes-one/glibc-2.34/build/libc_pic.a(cacheinfo.os)
 .eh_frame      0x0000000000004828       0x38 /home/mritunjya/rooms/cryptography/crypto-hack/crackmes-one/glibc-2.34/build/libc_pic.a(closedir.os)
 .eh_frame      0x0000000000004860       0x50 /home/mritunjya/rooms/cryptography/crypto-hack/crackmes-one/glibc-2.34/build/libc_pic.a(rewinddir.os)
 .eh_frame      0x00000000000048b0       0x70 /home/mritunjya/rooms/cryptography/crypto-hack/crackmes-one/glibc-2.34/build/libc_pic.a(readdir64.os)
 .eh_frame      0x0000000000004920       0x50 /home/mritunjya/rooms/cryptography/crypto-hack/crackmes-one/glibc-2.34/build/libc_pic.a(fdopendir.os)
 .eh_frame      0x0000000000004970       0x30 /home/mritunjya/rooms/cryptography/crypto-hack/crackmes-one/glibc-2.34/build/libc_pic.a(uname.os)
 .eh_frame      0x00000000000049a0       0x30 /home/mritunjya/rooms/cryptography/crypto-hack/crackmes-one/glibc-2.34/build/libc_pic.a(_exit.os)
 .eh_frame      0x00000000000049d0       0x30 /home/mritunjya/rooms/cryptography/crypto-hack/crackmes-one/glibc-2.34/build/libc_pic.a(getpid.os)
 .eh_frame      0x0000000000004a00       0x30 /home/mritunjya/rooms/cryptography/crypto-hack/crackmes-one/glibc-2.34/build/libc_pic.a(stat64.os)
 .eh_frame      0x0000000000004a30       0x30 /home/mritunjya/rooms/cryptography/crypto-hack/crackmes-one/glibc-2.34/build/libc_pic.a(fstat64.os)
 .eh_frame      0x0000000000004a60       0x30 /home/mritunjya/rooms/cryptography/crypto-hack/crackmes-one/glibc-2.34/build/libc_pic.a(lstat64.os)
 .eh_frame      0x0000000000004a90       0x30 /home/mritunjya/rooms/cryptography/crypto-hack/crackmes-one/glibc-2.34/build/libc_pic.a(fstatat64.os)
 .eh_frame      0x0000000000004ac0       0x60 /home/mritunjya/rooms/cryptography/crypto-hack/crackmes-one/glibc-2.34/build/libc_pic.a(openat64.os)
 .eh_frame      0x0000000000004b20       0x30 /home/mritunjya/rooms/cryptography/crypto-hack/crackmes-one/glibc-2.34/build/libc_pic.a(lseek64.os)
 .eh_frame      0x0000000000004b50       0x30 /home/mritunjya/rooms/cryptography/crypto-hack/crackmes-one/glibc-2.34/build/libc_pic.a(access.os)
 .eh_frame      0x0000000000004b80       0x30 /home/mritunjya/rooms/cryptography/crypto-hack/crackmes-one/glibc-2.34/build/libc_pic.a(close_nocancel.os)
 .eh_frame      0x0000000000004bb0       0x48 /home/mritunjya/rooms/cryptography/crypto-hack/crackmes-one/glibc-2.34/build/libc_pic.a(fcntl_nocancel.os)
 .eh_frame      0x0000000000004bf8       0x30 /home/mritunjya/rooms/cryptography/crypto-hack/crackmes-one/glibc-2.34/build/libc_pic.a(open64_nocancel.os)
 .eh_frame      0x0000000000004c28       0x30 /home/mritunjya/rooms/cryptography/crypto-hack/crackmes-one/glibc-2.34/build/libc_pic.a(read_nocancel.os)
 .eh_frame      0x0000000000004c58       0x30 /home/mritunjya/rooms/cryptography/crypto-hack/crackmes-one/glibc-2.34/build/libc_pic.a(pread64_nocancel.os)
 .eh_frame      0x0000000000004c88       0x30 /home/mritunjya/rooms/cryptography/crypto-hack/crackmes-one/glibc-2.34/build/libc_pic.a(write_nocancel.os)
 .eh_frame      0x0000000000004cb8       0x70 /home/mritunjya/rooms/cryptography/crypto-hack/crackmes-one/glibc-2.34/build/libc_pic.a(mmap64.os)
 .eh_frame      0x0000000000004d28       0x30 /home/mritunjya/rooms/cryptography/crypto-hack/crackmes-one/glibc-2.34/build/libc_pic.a(munmap.os)
 .eh_frame      0x0000000000004d58       0x30 /home/mritunjya/rooms/cryptography/crypto-hack/crackmes-one/glibc-2.34/build/libc_pic.a(mprotect.os)
 .eh_frame      0x0000000000004d88       0x80 /home/mritunjya/rooms/cryptography/crypto-hack/crackmes-one/glibc-2.34/build/libc_pic.a(profil.os)
 .eh_frame      0x0000000000004e08       0x30 /home/mritunjya/rooms/cryptography/crypto-hack/crackmes-one/glibc-2.34/build/libc_pic.a(prof-freq.os)
 .eh_frame      0x0000000000004e38       0x30 /home/mritunjya/rooms/cryptography/crypto-hack/crackmes-one/glibc-2.34/build/libc_pic.a(dl-addr-obj.os)
 .eh_frame      0x0000000000004e68       0x30 /home/mritunjya/rooms/cryptography/crypto-hack/crackmes-one/glibc-2.34/build/libc_pic.a(sigaction.os)
 .eh_frame      0x0000000000004e98       0xc8 /home/mritunjya/rooms/cryptography/crypto-hack/crackmes-one/glibc-2.34/build/libc_pic.a(libc_sigaction.os)
                                         0xd0 (size before relaxing)
 .eh_frame      0x0000000000004f60       0x30 /home/mritunjya/rooms/cryptography/crypto-hack/crackmes-one/glibc-2.34/build/libc_pic.a(setitimer.os)
 .eh_frame      0x0000000000004f90       0x2c /home/mritunjya/rooms/cryptography/crypto-hack/crackmes-one/glibc-2.34/build/libc_pic.a(getdents64.os)
                                         0x30 (size before relaxing)

.gcc_except_table
 *(.gcc_except_table)

.gnu_extab
 *(.gnu_extab*)

.exception_ranges
 *(.exception_ranges)

.eh_frame
 *(.eh_frame)

.gnu_extab
 *(.gnu_extab)

.gcc_except_table
 *(.gcc_except_table)

.exception_ranges
 *(.exception_ranges)

.tdata
 *(.tdata)

.tbss           0x0000000000000000        0x4
 *(.tbss)
 .tbss          0x0000000000000000        0x4 /home/mritunjya/rooms/cryptography/crypto-hack/crackmes-one/glibc-2.34/build/libc_pic.a(errno.os)
                0x0000000000000000                errno
                0x0000000000000000                __libc_errno

.jcr
 *(.jcr)

.dynamic
 *(.dynamic)

.got
 *(.got)

.got.plt
 *(.got.plt)

.data           0x0000000000000000     0x1058
 *(.data)
 .data          0x0000000000000000        0x0 /home/mritunjya/rooms/cryptography/crypto-hack/crackmes-one/glibc-2.34/build/elf/librtld.mapT.o
 .data          0x0000000000000000     0x1028 /home/mritunjya/rooms/cryptography/crypto-hack/crackmes-one/glibc-2.34/build/elf/dl-allobjs.os
                0x0000000000000000                _rtld_global
                0x0000000000000000                _rtld_local
 .data          0x0000000000001028        0x0 /home/mritunjya/rooms/cryptography/crypto-hack/crackmes-one/glibc-2.34/build/libc_pic.a(check_fds.os)
 .data          0x0000000000001028        0x0 /home/mritunjya/rooms/cryptography/crypto-hack/crackmes-one/glibc-2.34/build/libc_pic.a(errno.os)
 .data          0x0000000000001028        0x0 /home/mritunjya/rooms/cryptography/crypto-hack/crackmes-one/glibc-2.34/build/libc_pic.a(setjmp.os)
 .data          0x0000000000001028        0x0 /home/mritunjya/rooms/cryptography/crypto-hack/crackmes-one/glibc-2.34/build/libc_pic.a(__longjmp.os)
 .data          0x0000000000001028        0x0 /home/mritunjya/rooms/cryptography/crypto-hack/crackmes-one/glibc-2.34/build/libc_pic.a(lowlevellock.os)
 .data          0x0000000000001028        0x0 /home/mritunjya/rooms/cryptography/crypto-hack/crackmes-one/glibc-2.34/build/libc_pic.a(scratch_buffer_set_array_size.os)
 .data          0x0000000000001028        0x0 /home/mritunjya/rooms/cryptography/crypto-hack/crackmes-one/glibc-2.34/build/libc_pic.a(strchr.os)
 .data          0x0000000000001028        0x0 /home/mritunjya/rooms/cryptography/crypto-hack/crackmes-one/glibc-2.34/build/libc_pic.a(strcmp.os)
 .data          0x0000000000001028        0x0 /home/mritunjya/rooms/cryptography/crypto-hack/crackmes-one/glibc-2.34/build/libc_pic.a(strcspn.os)
 .data          0x0000000000001028        0x0 /home/mritunjya/rooms/cryptography/crypto-hack/crackmes-one/glibc-2.34/build/libc_pic.a(strdup.os)
 .data          0x0000000000001028        0x0 /home/mritunjya/rooms/cryptography/crypto-hack/crackmes-one/glibc-2.34/build/libc_pic.a(strlen.os)
 .data          0x0000000000001028        0x0 /home/mritunjya/rooms/cryptography/crypto-hack/crackmes-one/glibc-2.34/build/libc_pic.a(strnlen.os)
 .data          0x0000000000001028        0x0 /home/mritunjya/rooms/cryptography/crypto-hack/crackmes-one/glibc-2.34/build/libc_pic.a(strncmp.os)
 .data          0x0000000000001028        0x0 /home/mritunjya/rooms/cryptography/crypto-hack/crackmes-one/glibc-2.34/build/libc_pic.a(memchr.os)
 .data          0x0000000000001028        0x0 /home/mritunjya/rooms/cryptography/crypto-hack/crackmes-one/glibc-2.34/build/libc_pic.a(memcmp.os)
 .data          0x0000000000001028        0x0 /home/mritunjya/rooms/cryptography/crypto-hack/crackmes-one/glibc-2.34/build/libc_pic.a(memmove.os)
 .data          0x0000000000001028        0x0 /home/mritunjya/rooms/cryptography/crypto-hack/crackmes-one/glibc-2.34/build/libc_pic.a(memset.os)
 .data          0x0000000000001028        0x0 /home/mritunjya/rooms/cryptography/crypto-hack/crackmes-one/glibc-2.34/build/libc_pic.a(mempcpy.os)
 .data          0x0000000000001028        0x0 /home/mritunjya/rooms/cryptography/crypto-hack/crackmes-one/glibc-2.34/build/libc_pic.a(stpcpy.os)
 .data          0x0000000000001028        0x0 /home/mritunjya/rooms/cryptography/crypto-hack/crackmes-one/glibc-2.34/build/libc_pic.a(memcpy.os)
 .data          0x0000000000001028        0x0 /home/mritunjya/rooms/cryptography/crypto-hack/crackmes-one/glibc-2.34/build/libc_pic.a(rawmemchr.os)
 .data          0x0000000000001028        0x0 /home/mritunjya/rooms/cryptography/crypto-hack/crackmes-one/glibc-2.34/build/libc_pic.a(strcmp-sse2.os)
 .data          0x0000000000001028        0x0 /home/mritunjya/rooms/cryptography/crypto-hack/crackmes-one/glibc-2.34/build/libc_pic.a(strcmp-sse2-unaligned.os)
 .data          0x0000000000001028        0x0 /home/mritunjya/rooms/cryptography/crypto-hack/crackmes-one/glibc-2.34/build/libc_pic.a(strcmp-ssse3.os)
 .data          0x0000000000001028        0x0 /home/mritunjya/rooms/cryptography/crypto-hack/crackmes-one/glibc-2.34/build/libc_pic.a(strcmp-avx2.os)
 .data          0x0000000000001028        0x0 /home/mritunjya/rooms/cryptography/crypto-hack/crackmes-one/glibc-2.34/build/libc_pic.a(strncmp-sse2.os)
 .data          0x0000000000001028        0x0 /home/mritunjya/rooms/cryptography/crypto-hack/crackmes-one/glibc-2.34/build/libc_pic.a(strncmp-ssse3.os)
 .data          0x0000000000001028        0x0 /home/mritunjya/rooms/cryptography/crypto-hack/crackmes-one/glibc-2.34/build/libc_pic.a(strncmp-sse4_2.os)
 .data          0x0000000000001028        0x0 /home/mritunjya/rooms/cryptography/crypto-hack/crackmes-one/glibc-2.34/build/libc_pic.a(strncmp-avx2.os)
 .data          0x0000000000001028        0x0 /home/mritunjya/rooms/cryptography/crypto-hack/crackmes-one/glibc-2.34/build/libc_pic.a(memchr-sse2.os)
 .data          0x0000000000001028        0x0 /home/mritunjya/rooms/cryptography/crypto-hack/crackmes-one/glibc-2.34/build/libc_pic.a(rawmemchr-sse2.os)
 .data          0x0000000000001028        0x0 /home/mritunjya/rooms/cryptography/crypto-hack/crackmes-one/glibc-2.34/build/libc_pic.a(memchr-avx2.os)
 .data          0x0000000000001028        0x0 /home/mritunjya/rooms/cryptography/crypto-hack/crackmes-one/glibc-2.34/build/libc_pic.a(rawmemchr-avx2.os)
 .data          0x0000000000001028        0x0 /home/mritunjya/rooms/cryptography/crypto-hack/crackmes-one/glibc-2.34/build/libc_pic.a(memcmp-sse2.os)
 .data          0x0000000000001028        0x0 /home/mritunjya/rooms/cryptography/crypto-hack/crackmes-one/glibc-2.34/build/libc_pic.a(memcmp-avx2-movbe.os)
 .data          0x0000000000001028        0x0 /home/mritunjya/rooms/cryptography/crypto-hack/crackmes-one/glibc-2.34/build/libc_pic.a(memcmp-sse4.os)
 .data          0x0000000000001028        0x0 /home/mritunjya/rooms/cryptography/crypto-hack/crackmes-one/glibc-2.34/build/libc_pic.a(memcpy-ssse3.os)
 .data          0x0000000000001028        0x0 /home/mritunjya/rooms/cryptography/crypto-hack/crackmes-one/glibc-2.34/build/libc_pic.a(memmove-ssse3.os)
 .data          0x0000000000001028        0x0 /home/mritunjya/rooms/cryptography/crypto-hack/crackmes-one/glibc-2.34/build/libc_pic.a(memcpy-ssse3-back.os)
 .data          0x0000000000001028        0x0 /home/mritunjya/rooms/cryptography/crypto-hack/crackmes-one/glibc-2.34/build/libc_pic.a(memmove-ssse3-back.os)
 .data          0x0000000000001028        0x0 /home/mritunjya/rooms/cryptography/crypto-hack/crackmes-one/glibc-2.34/build/libc_pic.a(memmove-avx512-no-vzeroupper.os)
 .data          0x0000000000001028        0x0 /home/mritunjya/rooms/cryptography/crypto-hack/crackmes-one/glibc-2.34/build/libc_pic.a(strchr-sse2.os)
 .data          0x0000000000001028        0x0 /home/mritunjya/rooms/cryptography/crypto-hack/crackmes-one/glibc-2.34/build/libc_pic.a(strchr-avx2.os)
 .data          0x0000000000001028        0x0 /home/mritunjya/rooms/cryptography/crypto-hack/crackmes-one/glibc-2.34/build/libc_pic.a(strlen-sse2.os)
 .data          0x0000000000001028        0x0 /home/mritunjya/rooms/cryptography/crypto-hack/crackmes-one/glibc-2.34/build/libc_pic.a(strnlen-sse2.os)
 .data          0x0000000000001028        0x0 /home/mritunjya/rooms/cryptography/crypto-hack/crackmes-one/glibc-2.34/build/libc_pic.a(strlen-avx2.os)
 .data          0x0000000000001028        0x0 /home/mritunjya/rooms/cryptography/crypto-hack/crackmes-one/glibc-2.34/build/libc_pic.a(strnlen-avx2.os)
 .data          0x0000000000001028        0x0 /home/mritunjya/rooms/cryptography/crypto-hack/crackmes-one/glibc-2.34/build/libc_pic.a(stpcpy-sse2.os)
 .data          0x0000000000001028        0x0 /home/mritunjya/rooms/cryptography/crypto-hack/crackmes-one/glibc-2.34/build/libc_pic.a(stpcpy-ssse3.os)
 .data          0x0000000000001028        0x0 /home/mritunjya/rooms/cryptography/crypto-hack/crackmes-one/glibc-2.34/build/libc_pic.a(stpcpy-sse2-unaligned.os)
 .data          0x0000000000001028        0x0 /home/mritunjya/rooms/cryptography/crypto-hack/crackmes-one/glibc-2.34/build/libc_pic.a(stpcpy-avx2.os)
 .data          0x0000000000001028        0x0 /home/mritunjya/rooms/cryptography/crypto-hack/crackmes-one/glibc-2.34/build/libc_pic.a(strchr-sse2-no-bsf.os)
 .data          0x0000000000001028        0x0 /home/mritunjya/rooms/cryptography/crypto-hack/crackmes-one/glibc-2.34/build/libc_pic.a(memcmp-ssse3.os)
 .data          0x0000000000001028        0x0 /home/mritunjya/rooms/cryptography/crypto-hack/crackmes-one/glibc-2.34/build/libc_pic.a(strcspn-sse2.os)
 .data          0x0000000000001028        0x0 /home/mritunjya/rooms/cryptography/crypto-hack/crackmes-one/glibc-2.34/build/libc_pic.a(strcspn-c.os)
 .data          0x0000000000001028        0x0 /home/mritunjya/rooms/cryptography/crypto-hack/crackmes-one/glibc-2.34/build/libc_pic.a(varshift.os)
 .data          0x0000000000001028        0x0 /home/mritunjya/rooms/cryptography/crypto-hack/crackmes-one/glibc-2.34/build/libc_pic.a(memset-avx512-no-vzeroupper.os)
 .data          0x0000000000001028        0x0 /home/mritunjya/rooms/cryptography/crypto-hack/crackmes-one/glibc-2.34/build/libc_pic.a(memmove-sse2-unaligned-erms.os)
 .data          0x0000000000001028        0x0 /home/mritunjya/rooms/cryptography/crypto-hack/crackmes-one/glibc-2.34/build/libc_pic.a(memmove-avx-unaligned-erms.os)
 .data          0x0000000000001028        0x0 /home/mritunjya/rooms/cryptography/crypto-hack/crackmes-one/glibc-2.34/build/libc_pic.a(memmove-avx512-unaligned-erms.os)
 .data          0x0000000000001028        0x0 /home/mritunjya/rooms/cryptography/crypto-hack/crackmes-one/glibc-2.34/build/libc_pic.a(memset-sse2-unaligned-erms.os)
 .data          0x0000000000001028        0x0 /home/mritunjya/rooms/cryptography/crypto-hack/crackmes-one/glibc-2.34/build/libc_pic.a(memset-avx2-unaligned-erms.os)
 .data          0x0000000000001028        0x0 /home/mritunjya/rooms/cryptography/crypto-hack/crackmes-one/glibc-2.34/build/libc_pic.a(memset-avx512-unaligned-erms.os)
 .data          0x0000000000001028        0x0 /home/mritunjya/rooms/cryptography/crypto-hack/crackmes-one/glibc-2.34/build/libc_pic.a(memchr-avx2-rtm.os)
 .data          0x0000000000001028        0x0 /home/mritunjya/rooms/cryptography/crypto-hack/crackmes-one/glibc-2.34/build/libc_pic.a(memcmp-avx2-movbe-rtm.os)
 .data          0x0000000000001028        0x0 /home/mritunjya/rooms/cryptography/crypto-hack/crackmes-one/glibc-2.34/build/libc_pic.a(memmove-avx-unaligned-erms-rtm.os)
 .data          0x0000000000001028        0x0 /home/mritunjya/rooms/cryptography/crypto-hack/crackmes-one/glibc-2.34/build/libc_pic.a(memset-avx2-unaligned-erms-rtm.os)
 .data          0x0000000000001028        0x0 /home/mritunjya/rooms/cryptography/crypto-hack/crackmes-one/glibc-2.34/build/libc_pic.a(rawmemchr-avx2-rtm.os)
 .data          0x0000000000001028        0x0 /home/mritunjya/rooms/cryptography/crypto-hack/crackmes-one/glibc-2.34/build/libc_pic.a(strchr-avx2-rtm.os)
 .data          0x0000000000001028        0x0 /home/mritunjya/rooms/cryptography/crypto-hack/crackmes-one/glibc-2.34/build/libc_pic.a(strcmp-avx2-rtm.os)
 .data          0x0000000000001028        0x0 /home/mritunjya/rooms/cryptography/crypto-hack/crackmes-one/glibc-2.34/build/libc_pic.a(stpcpy-avx2-rtm.os)
 .data          0x0000000000001028        0x0 /home/mritunjya/rooms/cryptography/crypto-hack/crackmes-one/glibc-2.34/build/libc_pic.a(strlen-avx2-rtm.os)
 .data          0x0000000000001028        0x0 /home/mritunjya/rooms/cryptography/crypto-hack/crackmes-one/glibc-2.34/build/libc_pic.a(strncmp-avx2-rtm.os)
 .data          0x0000000000001028        0x0 /home/mritunjya/rooms/cryptography/crypto-hack/crackmes-one/glibc-2.34/build/libc_pic.a(strnlen-avx2-rtm.os)
 .data          0x0000000000001028        0x0 /home/mritunjya/rooms/cryptography/crypto-hack/crackmes-one/glibc-2.34/build/libc_pic.a(memchr-evex.os)
 .data          0x0000000000001028        0x0 /home/mritunjya/rooms/cryptography/crypto-hack/crackmes-one/glibc-2.34/build/libc_pic.a(memcmp-evex-movbe.os)
 .data          0x0000000000001028        0x0 /home/mritunjya/rooms/cryptography/crypto-hack/crackmes-one/glibc-2.34/build/libc_pic.a(memmove-evex-unaligned-erms.os)
 .data          0x0000000000001028        0x0 /home/mritunjya/rooms/cryptography/crypto-hack/crackmes-one/glibc-2.34/build/libc_pic.a(memset-evex-unaligned-erms.os)
 .data          0x0000000000001028        0x0 /home/mritunjya/rooms/cryptography/crypto-hack/crackmes-one/glibc-2.34/build/libc_pic.a(rawmemchr-evex.os)
 .data          0x0000000000001028        0x0 /home/mritunjya/rooms/cryptography/crypto-hack/crackmes-one/glibc-2.34/build/libc_pic.a(stpcpy-evex.os)
 .data          0x0000000000001028        0x0 /home/mritunjya/rooms/cryptography/crypto-hack/crackmes-one/glibc-2.34/build/libc_pic.a(strchr-evex.os)
 .data          0x0000000000001028        0x0 /home/mritunjya/rooms/cryptography/crypto-hack/crackmes-one/glibc-2.34/build/libc_pic.a(strcmp-evex.os)
 .data          0x0000000000001028        0x0 /home/mritunjya/rooms/cryptography/crypto-hack/crackmes-one/glibc-2.34/build/libc_pic.a(strlen-evex.os)
 .data          0x0000000000001028        0x0 /home/mritunjya/rooms/cryptography/crypto-hack/crackmes-one/glibc-2.34/build/libc_pic.a(strncmp-evex.os)
 .data          0x0000000000001028        0x0 /home/mritunjya/rooms/cryptography/crypto-hack/crackmes-one/glibc-2.34/build/libc_pic.a(strnlen-evex.os)
 .data          0x0000000000001028        0x0 /home/mritunjya/rooms/cryptography/crypto-hack/crackmes-one/glibc-2.34/build/libc_pic.a(memchr-evex-rtm.os)
 .data          0x0000000000001028        0x0 /home/mritunjya/rooms/cryptography/crypto-hack/crackmes-one/glibc-2.34/build/libc_pic.a(rawmemchr-evex-rtm.os)
 .data          0x0000000000001028       0x30 /home/mritunjya/rooms/cryptography/crypto-hack/crackmes-one/glibc-2.34/build/libc_pic.a(cacheinfo.os)
                0x0000000000001028                __x86_rep_stosb_threshold
                0x0000000000001030                __x86_rep_movsb_threshold
                0x0000000000001038                __x86_shared_cache_size
                0x0000000000001040                __x86_shared_cache_size_half
                0x0000000000001048                __x86_data_cache_size
                0x0000000000001050                __x86_data_cache_size_half
 .data          0x0000000000001058        0x0 /home/mritunjya/rooms/cryptography/crypto-hack/crackmes-one/glibc-2.34/build/libc_pic.a(closedir.os)
 .data          0x0000000000001058        0x0 /home/mritunjya/rooms/cryptography/crypto-hack/crackmes-one/glibc-2.34/build/libc_pic.a(rewinddir.os)
 .data          0x0000000000001058        0x0 /home/mritunjya/rooms/cryptography/crypto-hack/crackmes-one/glibc-2.34/build/libc_pic.a(readdir64.os)
 .data          0x0000000000001058        0x0 /home/mritunjya/rooms/cryptography/crypto-hack/crackmes-one/glibc-2.34/build/libc_pic.a(fdopendir.os)
 .data          0x0000000000001058        0x0 /home/mritunjya/rooms/cryptography/crypto-hack/crackmes-one/glibc-2.34/build/libc_pic.a(uname.os)
 .data          0x0000000000001058        0x0 /home/mritunjya/rooms/cryptography/crypto-hack/crackmes-one/glibc-2.34/build/libc_pic.a(_exit.os)
 .data          0x0000000000001058        0x0 /home/mritunjya/rooms/cryptography/crypto-hack/crackmes-one/glibc-2.34/build/libc_pic.a(getpid.os)
 .data          0x0000000000001058        0x0 /home/mritunjya/rooms/cryptography/crypto-hack/crackmes-one/glibc-2.34/build/libc_pic.a(environ.os)
 .data          0x0000000000001058        0x0 /home/mritunjya/rooms/cryptography/crypto-hack/crackmes-one/glibc-2.34/build/libc_pic.a(stat64.os)
 .data          0x0000000000001058        0x0 /home/mritunjya/rooms/cryptography/crypto-hack/crackmes-one/glibc-2.34/build/libc_pic.a(fstat64.os)
 .data          0x0000000000001058        0x0 /home/mritunjya/rooms/cryptography/crypto-hack/crackmes-one/glibc-2.34/build/libc_pic.a(lstat64.os)
 .data          0x0000000000001058        0x0 /home/mritunjya/rooms/cryptography/crypto-hack/crackmes-one/glibc-2.34/build/libc_pic.a(fstatat64.os)
 .data          0x0000000000001058        0x0 /home/mritunjya/rooms/cryptography/crypto-hack/crackmes-one/glibc-2.34/build/libc_pic.a(openat64.os)
 .data          0x0000000000001058        0x0 /home/mritunjya/rooms/cryptography/crypto-hack/crackmes-one/glibc-2.34/build/libc_pic.a(lseek64.os)
 .data          0x0000000000001058        0x0 /home/mritunjya/rooms/cryptography/crypto-hack/crackmes-one/glibc-2.34/build/libc_pic.a(access.os)
 .data          0x0000000000001058        0x0 /home/mritunjya/rooms/cryptography/crypto-hack/crackmes-one/glibc-2.34/build/libc_pic.a(close_nocancel.os)
 .data          0x0000000000001058        0x0 /home/mritunjya/rooms/cryptography/crypto-hack/crackmes-one/glibc-2.34/build/libc_pic.a(fcntl_nocancel.os)
 .data          0x0000000000001058        0x0 /home/mritunjya/rooms/cryptography/crypto-hack/crackmes-one/glibc-2.34/build/libc_pic.a(open64_nocancel.os)
 .data          0x0000000000001058        0x0 /home/mritunjya/rooms/cryptography/crypto-hack/crackmes-one/glibc-2.34/build/libc_pic.a(read_nocancel.os)
 .data          0x0000000000001058        0x0 /home/mritunjya/rooms/cryptography/crypto-hack/crackmes-one/glibc-2.34/build/libc_pic.a(pread64_nocancel.os)
 .data          0x0000000000001058        0x0 /home/mritunjya/rooms/cryptography/crypto-hack/crackmes-one/glibc-2.34/build/libc_pic.a(write_nocancel.os)
 .data          0x0000000000001058        0x0 /home/mritunjya/rooms/cryptography/crypto-hack/crackmes-one/glibc-2.34/build/libc_pic.a(mmap64.os)
 .data          0x0000000000001058        0x0 /home/mritunjya/rooms/cryptography/crypto-hack/crackmes-one/glibc-2.34/build/libc_pic.a(munmap.os)
 .data          0x0000000000001058        0x0 /home/mritunjya/rooms/cryptography/crypto-hack/crackmes-one/glibc-2.34/build/libc_pic.a(mprotect.os)
 .data          0x0000000000001058        0x0 /home/mritunjya/rooms/cryptography/crypto-hack/crackmes-one/glibc-2.34/build/libc_pic.a(profil.os)
 .data          0x0000000000001058        0x0 /home/mritunjya/rooms/cryptography/crypto-hack/crackmes-one/glibc-2.34/build/libc_pic.a(prof-freq.os)
 .data          0x0000000000001058        0x0 /home/mritunjya/rooms/cryptography/crypto-hack/crackmes-one/glibc-2.34/build/libc_pic.a(dl-addr-obj.os)
 .data          0x0000000000001058        0x0 /home/mritunjya/rooms/cryptography/crypto-hack/crackmes-one/glibc-2.34/build/libc_pic.a(sigaction.os)
 .data          0x0000000000001058        0x0 /home/mritunjya/rooms/cryptography/crypto-hack/crackmes-one/glibc-2.34/build/libc_pic.a(libc_sigaction.os)
 .data          0x0000000000001058        0x0 /home/mritunjya/rooms/cryptography/crypto-hack/crackmes-one/glibc-2.34/build/libc_pic.a(setitimer.os)
 .data          0x0000000000001058        0x0 /home/mritunjya/rooms/cryptography/crypto-hack/crackmes-one/glibc-2.34/build/libc_pic.a(getdents64.os)

.data.rel.ro    0x0000000000000000     0x12f8
 .data.rel.ro   0x0000000000000000     0x12f0 /home/mritunjya/rooms/cryptography/crypto-hack/crackmes-one/glibc-2.34/build/elf/dl-allobjs.os
                0x0000000000000090                __pointer_chk_guard_local
                0x0000000000000098                _dl_skip_args
                0x00000000000000a0                __GI__dl_argv
                0x00000000000000a0                _dl_argv
                0x00000000000000a8                _dl_argc
                0x00000000000000c0                _rtld_global_ro
                0x00000000000000c0                _rtld_local_ro
                0x0000000000000450                __rtld_search_dirs
                0x0000000000000480                __rtld_env_path_list
                0x0000000000000490                __stack_prot
                0x00000000000012a0                __x86_cpu_features_p
                0x00000000000012a8                _dl_random
                0x00000000000012b0                __libc_stack_end
                0x00000000000012b0                __GI___libc_stack_end
                0x00000000000012b8                __GI___libc_enable_secure
                0x00000000000012b8                __libc_enable_secure
                0x00000000000012c0                __rtld_realloc
                0x00000000000012c8                __rtld_malloc
                0x00000000000012d0                __rtld_free
                0x00000000000012d8                __rtld_calloc
                0x00000000000012e0                ___rtld_mutex_unlock
                0x00000000000012e8                ___rtld_mutex_lock
 .data.rel.ro   0x00000000000012f0        0x8 /home/mritunjya/rooms/cryptography/crypto-hack/crackmes-one/glibc-2.34/build/libc_pic.a(cacheinfo.os)
                0x00000000000012f0                __x86_cacheinfo_p

.data1
 *(.data1)

.bss            0x0000000000000000      0x280
 *(.bss)
 .bss           0x0000000000000000        0x0 /home/mritunjya/rooms/cryptography/crypto-hack/crackmes-one/glibc-2.34/build/elf/librtld.mapT.o
 .bss           0x0000000000000000      0x168 /home/mritunjya/rooms/cryptography/crypto-hack/crackmes-one/glibc-2.34/build/elf/dl-allobjs.os
                0x0000000000000080                _r_debug
                0x00000000000000f4                __nptl_initial_report_events
                0x00000000000000f4                __GI___nptl_initial_report_events
                0x0000000000000150                _dl_hwcaps_priorities_length
                0x0000000000000158                _dl_hwcaps_priorities
                0x0000000000000160                __curbrk
 .bss           0x0000000000000168        0x0 /home/mritunjya/rooms/cryptography/crypto-hack/crackmes-one/glibc-2.34/build/libc_pic.a(check_fds.os)
 .bss           0x0000000000000168        0x0 /home/mritunjya/rooms/cryptography/crypto-hack/crackmes-one/glibc-2.34/build/libc_pic.a(errno.os)
 .bss           0x0000000000000168        0x0 /home/mritunjya/rooms/cryptography/crypto-hack/crackmes-one/glibc-2.34/build/libc_pic.a(setjmp.os)
 .bss           0x0000000000000168        0x0 /home/mritunjya/rooms/cryptography/crypto-hack/crackmes-one/glibc-2.34/build/libc_pic.a(__longjmp.os)
 .bss           0x0000000000000168        0x4 /home/mritunjya/rooms/cryptography/crypto-hack/crackmes-one/glibc-2.34/build/libc_pic.a(lowlevellock.os)
                0x0000000000000168                __GI___pthread_force_elision
                0x0000000000000168                __pthread_force_elision
 .bss           0x000000000000016c        0x0 /home/mritunjya/rooms/cryptography/crypto-hack/crackmes-one/glibc-2.34/build/libc_pic.a(scratch_buffer_set_array_size.os)
 .bss           0x000000000000016c        0x0 /home/mritunjya/rooms/cryptography/crypto-hack/crackmes-one/glibc-2.34/build/libc_pic.a(strchr.os)
 .bss           0x000000000000016c        0x0 /home/mritunjya/rooms/cryptography/crypto-hack/crackmes-one/glibc-2.34/build/libc_pic.a(strcmp.os)
 .bss           0x000000000000016c        0x0 /home/mritunjya/rooms/cryptography/crypto-hack/crackmes-one/glibc-2.34/build/libc_pic.a(strcspn.os)
 .bss           0x000000000000016c        0x0 /home/mritunjya/rooms/cryptography/crypto-hack/crackmes-one/glibc-2.34/build/libc_pic.a(strdup.os)
 .bss           0x000000000000016c        0x0 /home/mritunjya/rooms/cryptography/crypto-hack/crackmes-one/glibc-2.34/build/libc_pic.a(strlen.os)
 .bss           0x000000000000016c        0x0 /home/mritunjya/rooms/cryptography/crypto-hack/crackmes-one/glibc-2.34/build/libc_pic.a(strnlen.os)
 .bss           0x000000000000016c        0x0 /home/mritunjya/rooms/cryptography/crypto-hack/crackmes-one/glibc-2.34/build/libc_pic.a(strncmp.os)
 .bss           0x000000000000016c        0x0 /home/mritunjya/rooms/cryptography/crypto-hack/crackmes-one/glibc-2.34/build/libc_pic.a(memchr.os)
 .bss           0x000000000000016c        0x0 /home/mritunjya/rooms/cryptography/crypto-hack/crackmes-one/glibc-2.34/build/libc_pic.a(memcmp.os)
 .bss           0x000000000000016c        0x0 /home/mritunjya/rooms/cryptography/crypto-hack/crackmes-one/glibc-2.34/build/libc_pic.a(memmove.os)
 .bss           0x000000000000016c        0x0 /home/mritunjya/rooms/cryptography/crypto-hack/crackmes-one/glibc-2.34/build/libc_pic.a(memset.os)
 .bss           0x000000000000016c        0x0 /home/mritunjya/rooms/cryptography/crypto-hack/crackmes-one/glibc-2.34/build/libc_pic.a(mempcpy.os)
 .bss           0x000000000000016c        0x0 /home/mritunjya/rooms/cryptography/crypto-hack/crackmes-one/glibc-2.34/build/libc_pic.a(stpcpy.os)
 .bss           0x000000000000016c        0x0 /home/mritunjya/rooms/cryptography/crypto-hack/crackmes-one/glibc-2.34/build/libc_pic.a(memcpy.os)
 .bss           0x000000000000016c        0x0 /home/mritunjya/rooms/cryptography/crypto-hack/crackmes-one/glibc-2.34/build/libc_pic.a(rawmemchr.os)
 .bss           0x000000000000016c        0x0 /home/mritunjya/rooms/cryptography/crypto-hack/crackmes-one/glibc-2.34/build/libc_pic.a(strcmp-sse2.os)
 .bss           0x000000000000016c        0x0 /home/mritunjya/rooms/cryptography/crypto-hack/crackmes-one/glibc-2.34/build/libc_pic.a(strcmp-sse2-unaligned.os)
 .bss           0x000000000000016c        0x0 /home/mritunjya/rooms/cryptography/crypto-hack/crackmes-one/glibc-2.34/build/libc_pic.a(strcmp-ssse3.os)
 .bss           0x000000000000016c        0x0 /home/mritunjya/rooms/cryptography/crypto-hack/crackmes-one/glibc-2.34/build/libc_pic.a(strcmp-avx2.os)
 .bss           0x000000000000016c        0x0 /home/mritunjya/rooms/cryptography/crypto-hack/crackmes-one/glibc-2.34/build/libc_pic.a(strncmp-sse2.os)
 .bss           0x000000000000016c        0x0 /home/mritunjya/rooms/cryptography/crypto-hack/crackmes-one/glibc-2.34/build/libc_pic.a(strncmp-ssse3.os)
 .bss           0x000000000000016c        0x0 /home/mritunjya/rooms/cryptography/crypto-hack/crackmes-one/glibc-2.34/build/libc_pic.a(strncmp-sse4_2.os)
 .bss           0x000000000000016c        0x0 /home/mritunjya/rooms/cryptography/crypto-hack/crackmes-one/glibc-2.34/build/libc_pic.a(strncmp-avx2.os)
 .bss           0x000000000000016c        0x0 /home/mritunjya/rooms/cryptography/crypto-hack/crackmes-one/glibc-2.34/build/libc_pic.a(memchr-sse2.os)
 .bss           0x000000000000016c        0x0 /home/mritunjya/rooms/cryptography/crypto-hack/crackmes-one/glibc-2.34/build/libc_pic.a(rawmemchr-sse2.os)
 .bss           0x000000000000016c        0x0 /home/mritunjya/rooms/cryptography/crypto-hack/crackmes-one/glibc-2.34/build/libc_pic.a(memchr-avx2.os)
 .bss           0x000000000000016c        0x0 /home/mritunjya/rooms/cryptography/crypto-hack/crackmes-one/glibc-2.34/build/libc_pic.a(rawmemchr-avx2.os)
 .bss           0x000000000000016c        0x0 /home/mritunjya/rooms/cryptography/crypto-hack/crackmes-one/glibc-2.34/build/libc_pic.a(memcmp-sse2.os)
 .bss           0x000000000000016c        0x0 /home/mritunjya/rooms/cryptography/crypto-hack/crackmes-one/glibc-2.34/build/libc_pic.a(memcmp-avx2-movbe.os)
 .bss           0x000000000000016c        0x0 /home/mritunjya/rooms/cryptography/crypto-hack/crackmes-one/glibc-2.34/build/libc_pic.a(memcmp-sse4.os)
 .bss           0x000000000000016c        0x0 /home/mritunjya/rooms/cryptography/crypto-hack/crackmes-one/glibc-2.34/build/libc_pic.a(memcpy-ssse3.os)
 .bss           0x000000000000016c        0x0 /home/mritunjya/rooms/cryptography/crypto-hack/crackmes-one/glibc-2.34/build/libc_pic.a(memmove-ssse3.os)
 .bss           0x000000000000016c        0x0 /home/mritunjya/rooms/cryptography/crypto-hack/crackmes-one/glibc-2.34/build/libc_pic.a(memcpy-ssse3-back.os)
 .bss           0x000000000000016c        0x0 /home/mritunjya/rooms/cryptography/crypto-hack/crackmes-one/glibc-2.34/build/libc_pic.a(memmove-ssse3-back.os)
 .bss           0x000000000000016c        0x0 /home/mritunjya/rooms/cryptography/crypto-hack/crackmes-one/glibc-2.34/build/libc_pic.a(memmove-avx512-no-vzeroupper.os)
 .bss           0x000000000000016c        0x0 /home/mritunjya/rooms/cryptography/crypto-hack/crackmes-one/glibc-2.34/build/libc_pic.a(strchr-sse2.os)
 .bss           0x000000000000016c        0x0 /home/mritunjya/rooms/cryptography/crypto-hack/crackmes-one/glibc-2.34/build/libc_pic.a(strchr-avx2.os)
 .bss           0x000000000000016c        0x0 /home/mritunjya/rooms/cryptography/crypto-hack/crackmes-one/glibc-2.34/build/libc_pic.a(strlen-sse2.os)
 .bss           0x000000000000016c        0x0 /home/mritunjya/rooms/cryptography/crypto-hack/crackmes-one/glibc-2.34/build/libc_pic.a(strnlen-sse2.os)
 .bss           0x000000000000016c        0x0 /home/mritunjya/rooms/cryptography/crypto-hack/crackmes-one/glibc-2.34/build/libc_pic.a(strlen-avx2.os)
 .bss           0x000000000000016c        0x0 /home/mritunjya/rooms/cryptography/crypto-hack/crackmes-one/glibc-2.34/build/libc_pic.a(strnlen-avx2.os)
 .bss           0x000000000000016c        0x0 /home/mritunjya/rooms/cryptography/crypto-hack/crackmes-one/glibc-2.34/build/libc_pic.a(stpcpy-sse2.os)
 .bss           0x000000000000016c        0x0 /home/mritunjya/rooms/cryptography/crypto-hack/crackmes-one/glibc-2.34/build/libc_pic.a(stpcpy-ssse3.os)
 .bss           0x000000000000016c        0x0 /home/mritunjya/rooms/cryptography/crypto-hack/crackmes-one/glibc-2.34/build/libc_pic.a(stpcpy-sse2-unaligned.os)
 .bss           0x000000000000016c        0x0 /home/mritunjya/rooms/cryptography/crypto-hack/crackmes-one/glibc-2.34/build/libc_pic.a(stpcpy-avx2.os)
 .bss           0x000000000000016c        0x0 /home/mritunjya/rooms/cryptography/crypto-hack/crackmes-one/glibc-2.34/build/libc_pic.a(strchr-sse2-no-bsf.os)
 .bss           0x000000000000016c        0x0 /home/mritunjya/rooms/cryptography/crypto-hack/crackmes-one/glibc-2.34/build/libc_pic.a(memcmp-ssse3.os)
 .bss           0x000000000000016c        0x0 /home/mritunjya/rooms/cryptography/crypto-hack/crackmes-one/glibc-2.34/build/libc_pic.a(strcspn-sse2.os)
 .bss           0x000000000000016c        0x0 /home/mritunjya/rooms/cryptography/crypto-hack/crackmes-one/glibc-2.34/build/libc_pic.a(strcspn-c.os)
 .bss           0x000000000000016c        0x0 /home/mritunjya/rooms/cryptography/crypto-hack/crackmes-one/glibc-2.34/build/libc_pic.a(varshift.os)
 .bss           0x000000000000016c        0x0 /home/mritunjya/rooms/cryptography/crypto-hack/crackmes-one/glibc-2.34/build/libc_pic.a(memset-avx512-no-vzeroupper.os)
 .bss           0x000000000000016c        0x0 /home/mritunjya/rooms/cryptography/crypto-hack/crackmes-one/glibc-2.34/build/libc_pic.a(memmove-sse2-unaligned-erms.os)
 .bss           0x000000000000016c        0x0 /home/mritunjya/rooms/cryptography/crypto-hack/crackmes-one/glibc-2.34/build/libc_pic.a(memmove-avx-unaligned-erms.os)
 .bss           0x000000000000016c        0x0 /home/mritunjya/rooms/cryptography/crypto-hack/crackmes-one/glibc-2.34/build/libc_pic.a(memmove-avx512-unaligned-erms.os)
 .bss           0x000000000000016c        0x0 /home/mritunjya/rooms/cryptography/crypto-hack/crackmes-one/glibc-2.34/build/libc_pic.a(memset-sse2-unaligned-erms.os)
 .bss           0x000000000000016c        0x0 /home/mritunjya/rooms/cryptography/crypto-hack/crackmes-one/glibc-2.34/build/libc_pic.a(memset-avx2-unaligned-erms.os)
 .bss           0x000000000000016c        0x0 /home/mritunjya/rooms/cryptography/crypto-hack/crackmes-one/glibc-2.34/build/libc_pic.a(memset-avx512-unaligned-erms.os)
 .bss           0x000000000000016c        0x0 /home/mritunjya/rooms/cryptography/crypto-hack/crackmes-one/glibc-2.34/build/libc_pic.a(memchr-avx2-rtm.os)
 .bss           0x000000000000016c        0x0 /home/mritunjya/rooms/cryptography/crypto-hack/crackmes-one/glibc-2.34/build/libc_pic.a(memcmp-avx2-movbe-rtm.os)
 .bss           0x000000000000016c        0x0 /home/mritunjya/rooms/cryptography/crypto-hack/crackmes-one/glibc-2.34/build/libc_pic.a(memmove-avx-unaligned-erms-rtm.os)
 .bss           0x000000000000016c        0x0 /home/mritunjya/rooms/cryptography/crypto-hack/crackmes-one/glibc-2.34/build/libc_pic.a(memset-avx2-unaligned-erms-rtm.os)
 .bss           0x000000000000016c        0x0 /home/mritunjya/rooms/cryptography/crypto-hack/crackmes-one/glibc-2.34/build/libc_pic.a(rawmemchr-avx2-rtm.os)
 .bss           0x000000000000016c        0x0 /home/mritunjya/rooms/cryptography/crypto-hack/crackmes-one/glibc-2.34/build/libc_pic.a(strchr-avx2-rtm.os)
 .bss           0x000000000000016c        0x0 /home/mritunjya/rooms/cryptography/crypto-hack/crackmes-one/glibc-2.34/build/libc_pic.a(strcmp-avx2-rtm.os)
 .bss           0x000000000000016c        0x0 /home/mritunjya/rooms/cryptography/crypto-hack/crackmes-one/glibc-2.34/build/libc_pic.a(stpcpy-avx2-rtm.os)
 .bss           0x000000000000016c        0x0 /home/mritunjya/rooms/cryptography/crypto-hack/crackmes-one/glibc-2.34/build/libc_pic.a(strlen-avx2-rtm.os)
 .bss           0x000000000000016c        0x0 /home/mritunjya/rooms/cryptography/crypto-hack/crackmes-one/glibc-2.34/build/libc_pic.a(strncmp-avx2-rtm.os)
 .bss           0x000000000000016c        0x0 /home/mritunjya/rooms/cryptography/crypto-hack/crackmes-one/glibc-2.34/build/libc_pic.a(strnlen-avx2-rtm.os)
 .bss           0x000000000000016c        0x0 /home/mritunjya/rooms/cryptography/crypto-hack/crackmes-one/glibc-2.34/build/libc_pic.a(memchr-evex.os)
 .bss           0x000000000000016c        0x0 /home/mritunjya/rooms/cryptography/crypto-hack/crackmes-one/glibc-2.34/build/libc_pic.a(memcmp-evex-movbe.os)
 .bss           0x000000000000016c        0x0 /home/mritunjya/rooms/cryptography/crypto-hack/crackmes-one/glibc-2.34/build/libc_pic.a(memmove-evex-unaligned-erms.os)
 .bss           0x000000000000016c        0x0 /home/mritunjya/rooms/cryptography/crypto-hack/crackmes-one/glibc-2.34/build/libc_pic.a(memset-evex-unaligned-erms.os)
 .bss           0x000000000000016c        0x0 /home/mritunjya/rooms/cryptography/crypto-hack/crackmes-one/glibc-2.34/build/libc_pic.a(rawmemchr-evex.os)
 .bss           0x000000000000016c        0x0 /home/mritunjya/rooms/cryptography/crypto-hack/crackmes-one/glibc-2.34/build/libc_pic.a(stpcpy-evex.os)
 .bss           0x000000000000016c        0x0 /home/mritunjya/rooms/cryptography/crypto-hack/crackmes-one/glibc-2.34/build/libc_pic.a(strchr-evex.os)
 .bss           0x000000000000016c        0x0 /home/mritunjya/rooms/cryptography/crypto-hack/crackmes-one/glibc-2.34/build/libc_pic.a(strcmp-evex.os)
 .bss           0x000000000000016c        0x0 /home/mritunjya/rooms/cryptography/crypto-hack/crackmes-one/glibc-2.34/build/libc_pic.a(strlen-evex.os)
 .bss           0x000000000000016c        0x0 /home/mritunjya/rooms/cryptography/crypto-hack/crackmes-one/glibc-2.34/build/libc_pic.a(strncmp-evex.os)
 .bss           0x000000000000016c        0x0 /home/mritunjya/rooms/cryptography/crypto-hack/crackmes-one/glibc-2.34/build/libc_pic.a(strnlen-evex.os)
 .bss           0x000000000000016c        0x0 /home/mritunjya/rooms/cryptography/crypto-hack/crackmes-one/glibc-2.34/build/libc_pic.a(memchr-evex-rtm.os)
 .bss           0x000000000000016c        0x0 /home/mritunjya/rooms/cryptography/crypto-hack/crackmes-one/glibc-2.34/build/libc_pic.a(rawmemchr-evex-rtm.os)
 *fill*         0x000000000000016c        0x4 
 .bss           0x0000000000000170       0x18 /home/mritunjya/rooms/cryptography/crypto-hack/crackmes-one/glibc-2.34/build/libc_pic.a(cacheinfo.os)
                0x0000000000000170                __x86_string_control
                0x0000000000000178                __x86_rep_movsb_stop_threshold
                0x0000000000000180                __x86_shared_non_temporal_threshold
 .bss           0x0000000000000188        0x0 /home/mritunjya/rooms/cryptography/crypto-hack/crackmes-one/glibc-2.34/build/libc_pic.a(closedir.os)
 .bss           0x0000000000000188        0x0 /home/mritunjya/rooms/cryptography/crypto-hack/crackmes-one/glibc-2.34/build/libc_pic.a(rewinddir.os)
 .bss           0x0000000000000188        0x0 /home/mritunjya/rooms/cryptography/crypto-hack/crackmes-one/glibc-2.34/build/libc_pic.a(readdir64.os)
 .bss           0x0000000000000188        0x0 /home/mritunjya/rooms/cryptography/crypto-hack/crackmes-one/glibc-2.34/build/libc_pic.a(fdopendir.os)
 .bss           0x0000000000000188        0x0 /home/mritunjya/rooms/cryptography/crypto-hack/crackmes-one/glibc-2.34/build/libc_pic.a(uname.os)
 .bss           0x0000000000000188        0x0 /home/mritunjya/rooms/cryptography/crypto-hack/crackmes-one/glibc-2.34/build/libc_pic.a(_exit.os)
 .bss           0x0000000000000188        0x0 /home/mritunjya/rooms/cryptography/crypto-hack/crackmes-one/glibc-2.34/build/libc_pic.a(getpid.os)
 .bss           0x0000000000000188        0x8 /home/mritunjya/rooms/cryptography/crypto-hack/crackmes-one/glibc-2.34/build/libc_pic.a(environ.os)
                0x0000000000000188                _environ
                0x0000000000000188                __environ
                0x0000000000000188                environ
 .bss           0x0000000000000190        0x0 /home/mritunjya/rooms/cryptography/crypto-hack/crackmes-one/glibc-2.34/build/libc_pic.a(stat64.os)
 .bss           0x0000000000000190        0x0 /home/mritunjya/rooms/cryptography/crypto-hack/crackmes-one/glibc-2.34/build/libc_pic.a(fstat64.os)
 .bss           0x0000000000000190        0x0 /home/mritunjya/rooms/cryptography/crypto-hack/crackmes-one/glibc-2.34/build/libc_pic.a(lstat64.os)
 .bss           0x0000000000000190        0x0 /home/mritunjya/rooms/cryptography/crypto-hack/crackmes-one/glibc-2.34/build/libc_pic.a(fstatat64.os)
 .bss           0x0000000000000190        0x0 /home/mritunjya/rooms/cryptography/crypto-hack/crackmes-one/glibc-2.34/build/libc_pic.a(openat64.os)
 .bss           0x0000000000000190        0x0 /home/mritunjya/rooms/cryptography/crypto-hack/crackmes-one/glibc-2.34/build/libc_pic.a(lseek64.os)
 .bss           0x0000000000000190        0x0 /home/mritunjya/rooms/cryptography/crypto-hack/crackmes-one/glibc-2.34/build/libc_pic.a(access.os)
 .bss           0x0000000000000190        0x0 /home/mritunjya/rooms/cryptography/crypto-hack/crackmes-one/glibc-2.34/build/libc_pic.a(close_nocancel.os)
 .bss           0x0000000000000190        0x0 /home/mritunjya/rooms/cryptography/crypto-hack/crackmes-one/glibc-2.34/build/libc_pic.a(fcntl_nocancel.os)
 .bss           0x0000000000000190        0x0 /home/mritunjya/rooms/cryptography/crypto-hack/crackmes-one/glibc-2.34/build/libc_pic.a(open64_nocancel.os)
 .bss           0x0000000000000190        0x0 /home/mritunjya/rooms/cryptography/crypto-hack/crackmes-one/glibc-2.34/build/libc_pic.a(read_nocancel.os)
 .bss           0x0000000000000190        0x0 /home/mritunjya/rooms/cryptography/crypto-hack/crackmes-one/glibc-2.34/build/libc_pic.a(pread64_nocancel.os)
 .bss           0x0000000000000190        0x0 /home/mritunjya/rooms/cryptography/crypto-hack/crackmes-one/glibc-2.34/build/libc_pic.a(write_nocancel.os)
 .bss           0x0000000000000190        0x0 /home/mritunjya/rooms/cryptography/crypto-hack/crackmes-one/glibc-2.34/build/libc_pic.a(mmap64.os)
 .bss           0x0000000000000190        0x0 /home/mritunjya/rooms/cryptography/crypto-hack/crackmes-one/glibc-2.34/build/libc_pic.a(munmap.os)
 .bss           0x0000000000000190        0x0 /home/mritunjya/rooms/cryptography/crypto-hack/crackmes-one/glibc-2.34/build/libc_pic.a(mprotect.os)
 *fill*         0x0000000000000190       0x10 
 .bss           0x00000000000001a0       0xe0 /home/mritunjya/rooms/cryptography/crypto-hack/crackmes-one/glibc-2.34/build/libc_pic.a(profil.os)
 .bss           0x0000000000000280        0x0 /home/mritunjya/rooms/cryptography/crypto-hack/crackmes-one/glibc-2.34/build/libc_pic.a(prof-freq.os)
 .bss           0x0000000000000280        0x0 /home/mritunjya/rooms/cryptography/crypto-hack/crackmes-one/glibc-2.34/build/libc_pic.a(dl-addr-obj.os)
 .bss           0x0000000000000280        0x0 /home/mritunjya/rooms/cryptography/crypto-hack/crackmes-one/glibc-2.34/build/libc_pic.a(sigaction.os)
 .bss           0x0000000000000280        0x0 /home/mritunjya/rooms/cryptography/crypto-hack/crackmes-one/glibc-2.34/build/libc_pic.a(libc_sigaction.os)
 .bss           0x0000000000000280        0x0 /home/mritunjya/rooms/cryptography/crypto-hack/crackmes-one/glibc-2.34/build/libc_pic.a(setitimer.os)
 .bss           0x0000000000000280        0x0 /home/mritunjya/rooms/cryptography/crypto-hack/crackmes-one/glibc-2.34/build/libc_pic.a(getdents64.os)

.lbss
 *(.lbss)

.lrodata
 *(.lrodata)

.ldata
 *(.ldata)

.stab
 *(.stab)

.stabstr
 *(.stabstr)

.stab.excl
 *(.stab.excl)

.stab.exclstr
 *(.stab.exclstr)

.stab.index
 *(.stab.index)

.stab.indexstr
 *(.stab.indexstr)

.comment        0x0000000000000000      0xdc8
 *(.comment)
 .comment       0x0000000000000000      0x6e4 /home/mritunjya/rooms/cryptography/crypto-hack/crackmes-one/glibc-2.34/build/elf/dl-allobjs.os
 .comment       0x00000000000006e4       0x24 /home/mritunjya/rooms/cryptography/crypto-hack/crackmes-one/glibc-2.34/build/libc_pic.a(check_fds.os)
 .comment       0x0000000000000708       0x24 /home/mritunjya/rooms/cryptography/crypto-hack/crackmes-one/glibc-2.34/build/libc_pic.a(errno.os)
 .comment       0x000000000000072c       0x24 /home/mritunjya/rooms/cryptography/crypto-hack/crackmes-one/glibc-2.34/build/libc_pic.a(lowlevellock.os)
 .comment       0x0000000000000750       0x24 /home/mritunjya/rooms/cryptography/crypto-hack/crackmes-one/glibc-2.34/build/libc_pic.a(scratch_buffer_set_array_size.os)
 .comment       0x0000000000000774       0x24 /home/mritunjya/rooms/cryptography/crypto-hack/crackmes-one/glibc-2.34/build/libc_pic.a(strchr.os)
 .comment       0x0000000000000798       0x24 /home/mritunjya/rooms/cryptography/crypto-hack/crackmes-one/glibc-2.34/build/libc_pic.a(strcmp.os)
 .comment       0x00000000000007bc       0x24 /home/mritunjya/rooms/cryptography/crypto-hack/crackmes-one/glibc-2.34/build/libc_pic.a(strcspn.os)
 .comment       0x00000000000007e0       0x24 /home/mritunjya/rooms/cryptography/crypto-hack/crackmes-one/glibc-2.34/build/libc_pic.a(strdup.os)
 .comment       0x0000000000000804       0x24 /home/mritunjya/rooms/cryptography/crypto-hack/crackmes-one/glibc-2.34/build/libc_pic.a(strlen.os)
 .comment       0x0000000000000828       0x24 /home/mritunjya/rooms/cryptography/crypto-hack/crackmes-one/glibc-2.34/build/libc_pic.a(strnlen.os)
 .comment       0x000000000000084c       0x24 /home/mritunjya/rooms/cryptography/crypto-hack/crackmes-one/glibc-2.34/build/libc_pic.a(strncmp.os)
 .comment       0x0000000000000870       0x24 /home/mritunjya/rooms/cryptography/crypto-hack/crackmes-one/glibc-2.34/build/libc_pic.a(memchr.os)
 .comment       0x0000000000000894       0x24 /home/mritunjya/rooms/cryptography/crypto-hack/crackmes-one/glibc-2.34/build/libc_pic.a(memcmp.os)
 .comment       0x00000000000008b8       0x24 /home/mritunjya/rooms/cryptography/crypto-hack/crackmes-one/glibc-2.34/build/libc_pic.a(memmove.os)
 .comment       0x00000000000008dc       0x24 /home/mritunjya/rooms/cryptography/crypto-hack/crackmes-one/glibc-2.34/build/libc_pic.a(memset.os)
 .comment       0x0000000000000900       0x24 /home/mritunjya/rooms/cryptography/crypto-hack/crackmes-one/glibc-2.34/build/libc_pic.a(mempcpy.os)
 .comment       0x0000000000000924       0x24 /home/mritunjya/rooms/cryptography/crypto-hack/crackmes-one/glibc-2.34/build/libc_pic.a(stpcpy.os)
 .comment       0x0000000000000948       0x24 /home/mritunjya/rooms/cryptography/crypto-hack/crackmes-one/glibc-2.34/build/libc_pic.a(memcpy.os)
 .comment       0x000000000000096c       0x24 /home/mritunjya/rooms/cryptography/crypto-hack/crackmes-one/glibc-2.34/build/libc_pic.a(rawmemchr.os)
 .comment       0x0000000000000990       0x24 /home/mritunjya/rooms/cryptography/crypto-hack/crackmes-one/glibc-2.34/build/libc_pic.a(strcspn-c.os)
 .comment       0x00000000000009b4       0x24 /home/mritunjya/rooms/cryptography/crypto-hack/crackmes-one/glibc-2.34/build/libc_pic.a(varshift.os)
 .comment       0x00000000000009d8       0x24 /home/mritunjya/rooms/cryptography/crypto-hack/crackmes-one/glibc-2.34/build/libc_pic.a(cacheinfo.os)
 .comment       0x00000000000009fc       0x24 /home/mritunjya/rooms/cryptography/crypto-hack/crackmes-one/glibc-2.34/build/libc_pic.a(closedir.os)
 .comment       0x0000000000000a20       0x24 /home/mritunjya/rooms/cryptography/crypto-hack/crackmes-one/glibc-2.34/build/libc_pic.a(rewinddir.os)
 .comment       0x0000000000000a44       0x24 /home/mritunjya/rooms/cryptography/crypto-hack/crackmes-one/glibc-2.34/build/libc_pic.a(readdir64.os)
 .comment       0x0000000000000a68       0x24 /home/mritunjya/rooms/cryptography/crypto-hack/crackmes-one/glibc-2.34/build/libc_pic.a(fdopendir.os)
 .comment       0x0000000000000a8c       0x24 /home/mritunjya/rooms/cryptography/crypto-hack/crackmes-one/glibc-2.34/build/libc_pic.a(_exit.os)
 .comment       0x0000000000000ab0       0x24 /home/mritunjya/rooms/cryptography/crypto-hack/crackmes-one/glibc-2.34/build/libc_pic.a(environ.os)
 .comment       0x0000000000000ad4       0x24 /home/mritunjya/rooms/cryptography/crypto-hack/crackmes-one/glibc-2.34/build/libc_pic.a(stat64.os)
 .comment       0x0000000000000af8       0x24 /home/mritunjya/rooms/cryptography/crypto-hack/crackmes-one/glibc-2.34/build/libc_pic.a(fstat64.os)
 .comment       0x0000000000000b1c       0x24 /home/mritunjya/rooms/cryptography/crypto-hack/crackmes-one/glibc-2.34/build/libc_pic.a(lstat64.os)
 .comment       0x0000000000000b40       0x24 /home/mritunjya/rooms/cryptography/crypto-hack/crackmes-one/glibc-2.34/build/libc_pic.a(fstatat64.os)
 .comment       0x0000000000000b64       0x24 /home/mritunjya/rooms/cryptography/crypto-hack/crackmes-one/glibc-2.34/build/libc_pic.a(openat64.os)
 .comment       0x0000000000000b88       0x24 /home/mritunjya/rooms/cryptography/crypto-hack/crackmes-one/glibc-2.34/build/libc_pic.a(lseek64.os)
 .comment       0x0000000000000bac       0x24 /home/mritunjya/rooms/cryptography/crypto-hack/crackmes-one/glibc-2.34/build/libc_pic.a(access.os)
 .comment       0x0000000000000bd0       0x24 /home/mritunjya/rooms/cryptography/crypto-hack/crackmes-one/glibc-2.34/build/libc_pic.a(close_nocancel.os)
 .comment       0x0000000000000bf4       0x24 /home/mritunjya/rooms/cryptography/crypto-hack/crackmes-one/glibc-2.34/build/libc_pic.a(fcntl_nocancel.os)
 .comment       0x0000000000000c18       0x24 /home/mritunjya/rooms/cryptography/crypto-hack/crackmes-one/glibc-2.34/build/libc_pic.a(open64_nocancel.os)
 .comment       0x0000000000000c3c       0x24 /home/mritunjya/rooms/cryptography/crypto-hack/crackmes-one/glibc-2.34/build/libc_pic.a(read_nocancel.os)
 .comment       0x0000000000000c60       0x24 /home/mritunjya/rooms/cryptography/crypto-hack/crackmes-one/glibc-2.34/build/libc_pic.a(pread64_nocancel.os)
 .comment       0x0000000000000c84       0x24 /home/mritunjya/rooms/cryptography/crypto-hack/crackmes-one/glibc-2.34/build/libc_pic.a(write_nocancel.os)
 .comment       0x0000000000000ca8       0x24 /home/mritunjya/rooms/cryptography/crypto-hack/crackmes-one/glibc-2.34/build/libc_pic.a(mmap64.os)
 .comment       0x0000000000000ccc       0x24 /home/mritunjya/rooms/cryptography/crypto-hack/crackmes-one/glibc-2.34/build/libc_pic.a(profil.os)
 .comment       0x0000000000000cf0       0x24 /home/mritunjya/rooms/cryptography/crypto-hack/crackmes-one/glibc-2.34/build/libc_pic.a(prof-freq.os)
 .comment       0x0000000000000d14       0x24 /home/mritunjya/rooms/cryptography/crypto-hack/crackmes-one/glibc-2.34/build/libc_pic.a(dl-addr-obj.os)
 .comment       0x0000000000000d38       0x24 /home/mritunjya/rooms/cryptography/crypto-hack/crackmes-one/glibc-2.34/build/libc_pic.a(sigaction.os)
 .comment       0x0000000000000d5c       0x24 /home/mritunjya/rooms/cryptography/crypto-hack/crackmes-one/glibc-2.34/build/libc_pic.a(libc_sigaction.os)
 .comment       0x0000000000000d80       0x24 /home/mritunjya/rooms/cryptography/crypto-hack/crackmes-one/glibc-2.34/build/libc_pic.a(setitimer.os)
 .comment       0x0000000000000da4       0x24 /home/mritunjya/rooms/cryptography/crypto-hack/crackmes-one/glibc-2.34/build/libc_pic.a(getdents64.os)

.note.GNU-stack
                0x0000000000000000        0x0
 .note.GNU-stack
                0x0000000000000000        0x0 /home/mritunjya/rooms/cryptography/crypto-hack/crackmes-one/glibc-2.34/build/elf/librtld.mapT.o
 .note.GNU-stack
                0x0000000000000000        0x0 /home/mritunjya/rooms/cryptography/crypto-hack/crackmes-one/glibc-2.34/build/elf/dl-allobjs.os
 .note.GNU-stack
                0x0000000000000000        0x0 /home/mritunjya/rooms/cryptography/crypto-hack/crackmes-one/glibc-2.34/build/libc_pic.a(check_fds.os)
 .note.GNU-stack
                0x0000000000000000        0x0 /home/mritunjya/rooms/cryptography/crypto-hack/crackmes-one/glibc-2.34/build/libc_pic.a(errno.os)
 .note.GNU-stack
                0x0000000000000000        0x0 /home/mritunjya/rooms/cryptography/crypto-hack/crackmes-one/glibc-2.34/build/libc_pic.a(setjmp.os)
 .note.GNU-stack
                0x0000000000000000        0x0 /home/mritunjya/rooms/cryptography/crypto-hack/crackmes-one/glibc-2.34/build/libc_pic.a(__longjmp.os)
 .note.GNU-stack
                0x0000000000000000        0x0 /home/mritunjya/rooms/cryptography/crypto-hack/crackmes-one/glibc-2.34/build/libc_pic.a(lowlevellock.os)
 .note.GNU-stack
                0x0000000000000000        0x0 /home/mritunjya/rooms/cryptography/crypto-hack/crackmes-one/glibc-2.34/build/libc_pic.a(scratch_buffer_set_array_size.os)
 .note.GNU-stack
                0x0000000000000000        0x0 /home/mritunjya/rooms/cryptography/crypto-hack/crackmes-one/glibc-2.34/build/libc_pic.a(strchr.os)
 .note.GNU-stack
                0x0000000000000000        0x0 /home/mritunjya/rooms/cryptography/crypto-hack/crackmes-one/glibc-2.34/build/libc_pic.a(strcmp.os)
 .note.GNU-stack
                0x0000000000000000        0x0 /home/mritunjya/rooms/cryptography/crypto-hack/crackmes-one/glibc-2.34/build/libc_pic.a(strcspn.os)
 .note.GNU-stack
                0x0000000000000000        0x0 /home/mritunjya/rooms/cryptography/crypto-hack/crackmes-one/glibc-2.34/build/libc_pic.a(strdup.os)
 .note.GNU-stack
                0x0000000000000000        0x0 /home/mritunjya/rooms/cryptography/crypto-hack/crackmes-one/glibc-2.34/build/libc_pic.a(strlen.os)
 .note.GNU-stack
                0x0000000000000000        0x0 /home/mritunjya/rooms/cryptography/crypto-hack/crackmes-one/glibc-2.34/build/libc_pic.a(strnlen.os)
 .note.GNU-stack
                0x0000000000000000        0x0 /home/mritunjya/rooms/cryptography/crypto-hack/crackmes-one/glibc-2.34/build/libc_pic.a(strncmp.os)
 .note.GNU-stack
                0x0000000000000000        0x0 /home/mritunjya/rooms/cryptography/crypto-hack/crackmes-one/glibc-2.34/build/libc_pic.a(memchr.os)
 .note.GNU-stack
                0x0000000000000000        0x0 /home/mritunjya/rooms/cryptography/crypto-hack/crackmes-one/glibc-2.34/build/libc_pic.a(memcmp.os)
 .note.GNU-stack
                0x0000000000000000        0x0 /home/mritunjya/rooms/cryptography/crypto-hack/crackmes-one/glibc-2.34/build/libc_pic.a(memmove.os)
 .note.GNU-stack
                0x0000000000000000        0x0 /home/mritunjya/rooms/cryptography/crypto-hack/crackmes-one/glibc-2.34/build/libc_pic.a(memset.os)
 .note.GNU-stack
                0x0000000000000000        0x0 /home/mritunjya/rooms/cryptography/crypto-hack/crackmes-one/glibc-2.34/build/libc_pic.a(mempcpy.os)
 .note.GNU-stack
                0x0000000000000000        0x0 /home/mritunjya/rooms/cryptography/crypto-hack/crackmes-one/glibc-2.34/build/libc_pic.a(stpcpy.os)
 .note.GNU-stack
                0x0000000000000000        0x0 /home/mritunjya/rooms/cryptography/crypto-hack/crackmes-one/glibc-2.34/build/libc_pic.a(memcpy.os)
 .note.GNU-stack
                0x0000000000000000        0x0 /home/mritunjya/rooms/cryptography/crypto-hack/crackmes-one/glibc-2.34/build/libc_pic.a(rawmemchr.os)
 .note.GNU-stack
                0x0000000000000000        0x0 /home/mritunjya/rooms/cryptography/crypto-hack/crackmes-one/glibc-2.34/build/libc_pic.a(strcmp-sse2.os)
 .note.GNU-stack
                0x0000000000000000        0x0 /home/mritunjya/rooms/cryptography/crypto-hack/crackmes-one/glibc-2.34/build/libc_pic.a(strcmp-sse2-unaligned.os)
 .note.GNU-stack
                0x0000000000000000        0x0 /home/mritunjya/rooms/cryptography/crypto-hack/crackmes-one/glibc-2.34/build/libc_pic.a(strcmp-ssse3.os)
 .note.GNU-stack
                0x0000000000000000        0x0 /home/mritunjya/rooms/cryptography/crypto-hack/crackmes-one/glibc-2.34/build/libc_pic.a(strcmp-avx2.os)
 .note.GNU-stack
                0x0000000000000000        0x0 /home/mritunjya/rooms/cryptography/crypto-hack/crackmes-one/glibc-2.34/build/libc_pic.a(strncmp-sse2.os)
 .note.GNU-stack
                0x0000000000000000        0x0 /home/mritunjya/rooms/cryptography/crypto-hack/crackmes-one/glibc-2.34/build/libc_pic.a(strncmp-ssse3.os)
 .note.GNU-stack
                0x0000000000000000        0x0 /home/mritunjya/rooms/cryptography/crypto-hack/crackmes-one/glibc-2.34/build/libc_pic.a(strncmp-sse4_2.os)
 .note.GNU-stack
                0x0000000000000000        0x0 /home/mritunjya/rooms/cryptography/crypto-hack/crackmes-one/glibc-2.34/build/libc_pic.a(strncmp-avx2.os)
 .note.GNU-stack
                0x0000000000000000        0x0 /home/mritunjya/rooms/cryptography/crypto-hack/crackmes-one/glibc-2.34/build/libc_pic.a(memchr-sse2.os)
 .note.GNU-stack
                0x0000000000000000        0x0 /home/mritunjya/rooms/cryptography/crypto-hack/crackmes-one/glibc-2.34/build/libc_pic.a(rawmemchr-sse2.os)
 .note.GNU-stack
                0x0000000000000000        0x0 /home/mritunjya/rooms/cryptography/crypto-hack/crackmes-one/glibc-2.34/build/libc_pic.a(memchr-avx2.os)
 .note.GNU-stack
                0x0000000000000000        0x0 /home/mritunjya/rooms/cryptography/crypto-hack/crackmes-one/glibc-2.34/build/libc_pic.a(rawmemchr-avx2.os)
 .note.GNU-stack
                0x0000000000000000        0x0 /home/mritunjya/rooms/cryptography/crypto-hack/crackmes-one/glibc-2.34/build/libc_pic.a(memcmp-sse2.os)
 .note.GNU-stack
                0x0000000000000000        0x0 /home/mritunjya/rooms/cryptography/crypto-hack/crackmes-one/glibc-2.34/build/libc_pic.a(memcmp-avx2-movbe.os)
 .note.GNU-stack
                0x0000000000000000        0x0 /home/mritunjya/rooms/cryptography/crypto-hack/crackmes-one/glibc-2.34/build/libc_pic.a(memcmp-sse4.os)
 .note.GNU-stack
                0x0000000000000000        0x0 /home/mritunjya/rooms/cryptography/crypto-hack/crackmes-one/glibc-2.34/build/libc_pic.a(memcpy-ssse3.os)
 .note.GNU-stack
                0x0000000000000000        0x0 /home/mritunjya/rooms/cryptography/crypto-hack/crackmes-one/glibc-2.34/build/libc_pic.a(memmove-ssse3.os)
 .note.GNU-stack
                0x0000000000000000        0x0 /home/mritunjya/rooms/cryptography/crypto-hack/crackmes-one/glibc-2.34/build/libc_pic.a(memcpy-ssse3-back.os)
 .note.GNU-stack
                0x0000000000000000        0x0 /home/mritunjya/rooms/cryptography/crypto-hack/crackmes-one/glibc-2.34/build/libc_pic.a(memmove-ssse3-back.os)
 .note.GNU-stack
                0x0000000000000000        0x0 /home/mritunjya/rooms/cryptography/crypto-hack/crackmes-one/glibc-2.34/build/libc_pic.a(memmove-avx512-no-vzeroupper.os)
 .note.GNU-stack
                0x0000000000000000        0x0 /home/mritunjya/rooms/cryptography/crypto-hack/crackmes-one/glibc-2.34/build/libc_pic.a(strchr-sse2.os)
 .note.GNU-stack
                0x0000000000000000        0x0 /home/mritunjya/rooms/cryptography/crypto-hack/crackmes-one/glibc-2.34/build/libc_pic.a(strchr-avx2.os)
 .note.GNU-stack
                0x0000000000000000        0x0 /home/mritunjya/rooms/cryptography/crypto-hack/crackmes-one/glibc-2.34/build/libc_pic.a(strlen-sse2.os)
 .note.GNU-stack
                0x0000000000000000        0x0 /home/mritunjya/rooms/cryptography/crypto-hack/crackmes-one/glibc-2.34/build/libc_pic.a(strnlen-sse2.os)
 .note.GNU-stack
                0x0000000000000000        0x0 /home/mritunjya/rooms/cryptography/crypto-hack/crackmes-one/glibc-2.34/build/libc_pic.a(strlen-avx2.os)
 .note.GNU-stack
                0x0000000000000000        0x0 /home/mritunjya/rooms/cryptography/crypto-hack/crackmes-one/glibc-2.34/build/libc_pic.a(strnlen-avx2.os)
 .note.GNU-stack
                0x0000000000000000        0x0 /home/mritunjya/rooms/cryptography/crypto-hack/crackmes-one/glibc-2.34/build/libc_pic.a(stpcpy-sse2.os)
 .note.GNU-stack
                0x0000000000000000        0x0 /home/mritunjya/rooms/cryptography/crypto-hack/crackmes-one/glibc-2.34/build/libc_pic.a(stpcpy-ssse3.os)
 .note.GNU-stack
                0x0000000000000000        0x0 /home/mritunjya/rooms/cryptography/crypto-hack/crackmes-one/glibc-2.34/build/libc_pic.a(stpcpy-sse2-unaligned.os)
 .note.GNU-stack
                0x0000000000000000        0x0 /home/mritunjya/rooms/cryptography/crypto-hack/crackmes-one/glibc-2.34/build/libc_pic.a(stpcpy-avx2.os)
 .note.GNU-stack
                0x0000000000000000        0x0 /home/mritunjya/rooms/cryptography/crypto-hack/crackmes-one/glibc-2.34/build/libc_pic.a(strchr-sse2-no-bsf.os)
 .note.GNU-stack
                0x0000000000000000        0x0 /home/mritunjya/rooms/cryptography/crypto-hack/crackmes-one/glibc-2.34/build/libc_pic.a(memcmp-ssse3.os)
 .note.GNU-stack
                0x0000000000000000        0x0 /home/mritunjya/rooms/cryptography/crypto-hack/crackmes-one/glibc-2.34/build/libc_pic.a(strcspn-sse2.os)
 .note.GNU-stack
                0x0000000000000000        0x0 /home/mritunjya/rooms/cryptography/crypto-hack/crackmes-one/glibc-2.34/build/libc_pic.a(strcspn-c.os)
 .note.GNU-stack
                0x0000000000000000        0x0 /home/mritunjya/rooms/cryptography/crypto-hack/crackmes-one/glibc-2.34/build/libc_pic.a(varshift.os)
 .note.GNU-stack
                0x0000000000000000        0x0 /home/mritunjya/rooms/cryptography/crypto-hack/crackmes-one/glibc-2.34/build/libc_pic.a(memset-avx512-no-vzeroupper.os)
 .note.GNU-stack
                0x0000000000000000        0x0 /home/mritunjya/rooms/cryptography/crypto-hack/crackmes-one/glibc-2.34/build/libc_pic.a(memmove-sse2-unaligned-erms.os)
 .note.GNU-stack
                0x0000000000000000        0x0 /home/mritunjya/rooms/cryptography/crypto-hack/crackmes-one/glibc-2.34/build/libc_pic.a(memmove-avx-unaligned-erms.os)
 .note.GNU-stack
                0x0000000000000000        0x0 /home/mritunjya/rooms/cryptography/crypto-hack/crackmes-one/glibc-2.34/build/libc_pic.a(memmove-avx512-unaligned-erms.os)
 .note.GNU-stack
                0x0000000000000000        0x0 /home/mritunjya/rooms/cryptography/crypto-hack/crackmes-one/glibc-2.34/build/libc_pic.a(memset-sse2-unaligned-erms.os)
 .note.GNU-stack
                0x0000000000000000        0x0 /home/mritunjya/rooms/cryptography/crypto-hack/crackmes-one/glibc-2.34/build/libc_pic.a(memset-avx2-unaligned-erms.os)
 .note.GNU-stack
                0x0000000000000000        0x0 /home/mritunjya/rooms/cryptography/crypto-hack/crackmes-one/glibc-2.34/build/libc_pic.a(memset-avx512-unaligned-erms.os)
 .note.GNU-stack
                0x0000000000000000        0x0 /home/mritunjya/rooms/cryptography/crypto-hack/crackmes-one/glibc-2.34/build/libc_pic.a(memchr-avx2-rtm.os)
 .note.GNU-stack
                0x0000000000000000        0x0 /home/mritunjya/rooms/cryptography/crypto-hack/crackmes-one/glibc-2.34/build/libc_pic.a(memcmp-avx2-movbe-rtm.os)
 .note.GNU-stack
                0x0000000000000000        0x0 /home/mritunjya/rooms/cryptography/crypto-hack/crackmes-one/glibc-2.34/build/libc_pic.a(memmove-avx-unaligned-erms-rtm.os)
 .note.GNU-stack
                0x0000000000000000        0x0 /home/mritunjya/rooms/cryptography/crypto-hack/crackmes-one/glibc-2.34/build/libc_pic.a(memset-avx2-unaligned-erms-rtm.os)
 .note.GNU-stack
                0x0000000000000000        0x0 /home/mritunjya/rooms/cryptography/crypto-hack/crackmes-one/glibc-2.34/build/libc_pic.a(rawmemchr-avx2-rtm.os)
 .note.GNU-stack
                0x0000000000000000        0x0 /home/mritunjya/rooms/cryptography/crypto-hack/crackmes-one/glibc-2.34/build/libc_pic.a(strchr-avx2-rtm.os)
 .note.GNU-stack
                0x0000000000000000        0x0 /home/mritunjya/rooms/cryptography/crypto-hack/crackmes-one/glibc-2.34/build/libc_pic.a(strcmp-avx2-rtm.os)
 .note.GNU-stack
                0x0000000000000000        0x0 /home/mritunjya/rooms/cryptography/crypto-hack/crackmes-one/glibc-2.34/build/libc_pic.a(stpcpy-avx2-rtm.os)
 .note.GNU-stack
                0x0000000000000000        0x0 /home/mritunjya/rooms/cryptography/crypto-hack/crackmes-one/glibc-2.34/build/libc_pic.a(strlen-avx2-rtm.os)
 .note.GNU-stack
                0x0000000000000000        0x0 /home/mritunjya/rooms/cryptography/crypto-hack/crackmes-one/glibc-2.34/build/libc_pic.a(strncmp-avx2-rtm.os)
 .note.GNU-stack
                0x0000000000000000        0x0 /home/mritunjya/rooms/cryptography/crypto-hack/crackmes-one/glibc-2.34/build/libc_pic.a(strnlen-avx2-rtm.os)
 .note.GNU-stack
                0x0000000000000000        0x0 /home/mritunjya/rooms/cryptography/crypto-hack/crackmes-one/glibc-2.34/build/libc_pic.a(memchr-evex.os)
 .note.GNU-stack
                0x0000000000000000        0x0 /home/mritunjya/rooms/cryptography/crypto-hack/crackmes-one/glibc-2.34/build/libc_pic.a(memcmp-evex-movbe.os)
 .note.GNU-stack
                0x0000000000000000        0x0 /home/mritunjya/rooms/cryptography/crypto-hack/crackmes-one/glibc-2.34/build/libc_pic.a(memmove-evex-unaligned-erms.os)
 .note.GNU-stack
                0x0000000000000000        0x0 /home/mritunjya/rooms/cryptography/crypto-hack/crackmes-one/glibc-2.34/build/libc_pic.a(memset-evex-unaligned-erms.os)
 .note.GNU-stack
                0x0000000000000000        0x0 /home/mritunjya/rooms/cryptography/crypto-hack/crackmes-one/glibc-2.34/build/libc_pic.a(rawmemchr-evex.os)
 .note.GNU-stack
                0x0000000000000000        0x0 /home/mritunjya/rooms/cryptography/crypto-hack/crackmes-one/glibc-2.34/build/libc_pic.a(stpcpy-evex.os)
 .note.GNU-stack
                0x0000000000000000        0x0 /home/mritunjya/rooms/cryptography/crypto-hack/crackmes-one/glibc-2.34/build/libc_pic.a(strchr-evex.os)
 .note.GNU-stack
                0x0000000000000000        0x0 /home/mritunjya/rooms/cryptography/crypto-hack/crackmes-one/glibc-2.34/build/libc_pic.a(strcmp-evex.os)
 .note.GNU-stack
                0x0000000000000000        0x0 /home/mritunjya/rooms/cryptography/crypto-hack/crackmes-one/glibc-2.34/build/libc_pic.a(strlen-evex.os)
 .note.GNU-stack
                0x0000000000000000        0x0 /home/mritunjya/rooms/cryptography/crypto-hack/crackmes-one/glibc-2.34/build/libc_pic.a(strncmp-evex.os)
 .note.GNU-stack
                0x0000000000000000        0x0 /home/mritunjya/rooms/cryptography/crypto-hack/crackmes-one/glibc-2.34/build/libc_pic.a(strnlen-evex.os)
 .note.GNU-stack
                0x0000000000000000        0x0 /home/mritunjya/rooms/cryptography/crypto-hack/crackmes-one/glibc-2.34/build/libc_pic.a(memchr-evex-rtm.os)
 .note.GNU-stack
                0x0000000000000000        0x0 /home/mritunjya/rooms/cryptography/crypto-hack/crackmes-one/glibc-2.34/build/libc_pic.a(rawmemchr-evex-rtm.os)
 .note.GNU-stack
                0x0000000000000000        0x0 /home/mritunjya/rooms/cryptography/crypto-hack/crackmes-one/glibc-2.34/build/libc_pic.a(cacheinfo.os)
 .note.GNU-stack
                0x0000000000000000        0x0 /home/mritunjya/rooms/cryptography/crypto-hack/crackmes-one/glibc-2.34/build/libc_pic.a(closedir.os)
 .note.GNU-stack
                0x0000000000000000        0x0 /home/mritunjya/rooms/cryptography/crypto-hack/crackmes-one/glibc-2.34/build/libc_pic.a(rewinddir.os)
 .note.GNU-stack
                0x0000000000000000        0x0 /home/mritunjya/rooms/cryptography/crypto-hack/crackmes-one/glibc-2.34/build/libc_pic.a(readdir64.os)
 .note.GNU-stack
                0x0000000000000000        0x0 /home/mritunjya/rooms/cryptography/crypto-hack/crackmes-one/glibc-2.34/build/libc_pic.a(fdopendir.os)
 .note.GNU-stack
                0x0000000000000000        0x0 /home/mritunjya/rooms/cryptography/crypto-hack/crackmes-one/glibc-2.34/build/libc_pic.a(uname.os)
 .note.GNU-stack
                0x0000000000000000        0x0 /home/mritunjya/rooms/cryptography/crypto-hack/crackmes-one/glibc-2.34/build/libc_pic.a(_exit.os)
 .note.GNU-stack
                0x0000000000000000        0x0 /home/mritunjya/rooms/cryptography/crypto-hack/crackmes-one/glibc-2.34/build/libc_pic.a(getpid.os)
 .note.GNU-stack
                0x0000000000000000        0x0 /home/mritunjya/rooms/cryptography/crypto-hack/crackmes-one/glibc-2.34/build/libc_pic.a(environ.os)
 .note.GNU-stack
                0x0000000000000000        0x0 /home/mritunjya/rooms/cryptography/crypto-hack/crackmes-one/glibc-2.34/build/libc_pic.a(stat64.os)
 .note.GNU-stack
                0x0000000000000000        0x0 /home/mritunjya/rooms/cryptography/crypto-hack/crackmes-one/glibc-2.34/build/libc_pic.a(fstat64.os)
 .note.GNU-stack
                0x0000000000000000        0x0 /home/mritunjya/rooms/cryptography/crypto-hack/crackmes-one/glibc-2.34/build/libc_pic.a(lstat64.os)
 .note.GNU-stack
                0x0000000000000000        0x0 /home/mritunjya/rooms/cryptography/crypto-hack/crackmes-one/glibc-2.34/build/libc_pic.a(fstatat64.os)
 .note.GNU-stack
                0x0000000000000000        0x0 /home/mritunjya/rooms/cryptography/crypto-hack/crackmes-one/glibc-2.34/build/libc_pic.a(openat64.os)
 .note.GNU-stack
                0x0000000000000000        0x0 /home/mritunjya/rooms/cryptography/crypto-hack/crackmes-one/glibc-2.34/build/libc_pic.a(lseek64.os)
 .note.GNU-stack
                0x0000000000000000        0x0 /home/mritunjya/rooms/cryptography/crypto-hack/crackmes-one/glibc-2.34/build/libc_pic.a(access.os)
 .note.GNU-stack
                0x0000000000000000        0x0 /home/mritunjya/rooms/cryptography/crypto-hack/crackmes-one/glibc-2.34/build/libc_pic.a(close_nocancel.os)
 .note.GNU-stack
                0x0000000000000000        0x0 /home/mritunjya/rooms/cryptography/crypto-hack/crackmes-one/glibc-2.34/build/libc_pic.a(fcntl_nocancel.os)
 .note.GNU-stack
                0x0000000000000000        0x0 /home/mritunjya/rooms/cryptography/crypto-hack/crackmes-one/glibc-2.34/build/libc_pic.a(open64_nocancel.os)
 .note.GNU-stack
                0x0000000000000000        0x0 /home/mritunjya/rooms/cryptography/crypto-hack/crackmes-one/glibc-2.34/build/libc_pic.a(read_nocancel.os)
 .note.GNU-stack
                0x0000000000000000        0x0 /home/mritunjya/rooms/cryptography/crypto-hack/crackmes-one/glibc-2.34/build/libc_pic.a(pread64_nocancel.os)
 .note.GNU-stack
                0x0000000000000000        0x0 /home/mritunjya/rooms/cryptography/crypto-hack/crackmes-one/glibc-2.34/build/libc_pic.a(write_nocancel.os)
 .note.GNU-stack
                0x0000000000000000        0x0 /home/mritunjya/rooms/cryptography/crypto-hack/crackmes-one/glibc-2.34/build/libc_pic.a(mmap64.os)
 .note.GNU-stack
                0x0000000000000000        0x0 /home/mritunjya/rooms/cryptography/crypto-hack/crackmes-one/glibc-2.34/build/libc_pic.a(munmap.os)
 .note.GNU-stack
                0x0000000000000000        0x0 /home/mritunjya/rooms/cryptography/crypto-hack/crackmes-one/glibc-2.34/build/libc_pic.a(mprotect.os)
 .note.GNU-stack
                0x0000000000000000        0x0 /home/mritunjya/rooms/cryptography/crypto-hack/crackmes-one/glibc-2.34/build/libc_pic.a(profil.os)
 .note.GNU-stack
                0x0000000000000000        0x0 /home/mritunjya/rooms/cryptography/crypto-hack/crackmes-one/glibc-2.34/build/libc_pic.a(prof-freq.os)
 .note.GNU-stack
                0x0000000000000000        0x0 /home/mritunjya/rooms/cryptography/crypto-hack/crackmes-one/glibc-2.34/build/libc_pic.a(dl-addr-obj.os)
 .note.GNU-stack
                0x0000000000000000        0x0 /home/mritunjya/rooms/cryptography/crypto-hack/crackmes-one/glibc-2.34/build/libc_pic.a(sigaction.os)
 .note.GNU-stack
                0x0000000000000000        0x0 /home/mritunjya/rooms/cryptography/crypto-hack/crackmes-one/glibc-2.34/build/libc_pic.a(libc_sigaction.os)
 .note.GNU-stack
                0x0000000000000000        0x0 /home/mritunjya/rooms/cryptography/crypto-hack/crackmes-one/glibc-2.34/build/libc_pic.a(setitimer.os)
 .note.GNU-stack
                0x0000000000000000        0x0 /home/mritunjya/rooms/cryptography/crypto-hack/crackmes-one/glibc-2.34/build/libc_pic.a(getdents64.os)

.gnu.build.attributes
 *(.gnu.build.attributes)

.debug
 *(.debug)

.line
 *(.line)

.debug_srcinfo
 *(.debug_srcinfo)

.debug_sfnames
 *(.debug_sfnames)

.debug_aranges  0x0000000000000000     0x1fe0
 *(.debug_aranges)
 .debug_aranges
                0x0000000000000000      0x9c0 /home/mritunjya/rooms/cryptography/crypto-hack/crackmes-one/glibc-2.34/build/elf/dl-allobjs.os
 .debug_aranges
                0x00000000000009c0       0x30 /home/mritunjya/rooms/cryptography/crypto-hack/crackmes-one/glibc-2.34/build/libc_pic.a(check_fds.os)
 .debug_aranges
                0x00000000000009f0       0x20 /home/mritunjya/rooms/cryptography/crypto-hack/crackmes-one/glibc-2.34/build/libc_pic.a(errno.os)
 .debug_aranges
                0x0000000000000a10       0x30 /home/mritunjya/rooms/cryptography/crypto-hack/crackmes-one/glibc-2.34/build/libc_pic.a(setjmp.os)
 .debug_aranges
                0x0000000000000a40       0x30 /home/mritunjya/rooms/cryptography/crypto-hack/crackmes-one/glibc-2.34/build/libc_pic.a(__longjmp.os)
 .debug_aranges
                0x0000000000000a70       0x30 /home/mritunjya/rooms/cryptography/crypto-hack/crackmes-one/glibc-2.34/build/libc_pic.a(lowlevellock.os)
 .debug_aranges
                0x0000000000000aa0       0x30 /home/mritunjya/rooms/cryptography/crypto-hack/crackmes-one/glibc-2.34/build/libc_pic.a(scratch_buffer_set_array_size.os)
 .debug_aranges
                0x0000000000000ad0       0x30 /home/mritunjya/rooms/cryptography/crypto-hack/crackmes-one/glibc-2.34/build/libc_pic.a(strchr.os)
 .debug_aranges
                0x0000000000000b00       0x30 /home/mritunjya/rooms/cryptography/crypto-hack/crackmes-one/glibc-2.34/build/libc_pic.a(strcmp.os)
 .debug_aranges
                0x0000000000000b30       0x30 /home/mritunjya/rooms/cryptography/crypto-hack/crackmes-one/glibc-2.34/build/libc_pic.a(strcspn.os)
 .debug_aranges
                0x0000000000000b60       0x30 /home/mritunjya/rooms/cryptography/crypto-hack/crackmes-one/glibc-2.34/build/libc_pic.a(strdup.os)
 .debug_aranges
                0x0000000000000b90       0x30 /home/mritunjya/rooms/cryptography/crypto-hack/crackmes-one/glibc-2.34/build/libc_pic.a(strlen.os)
 .debug_aranges
                0x0000000000000bc0       0x30 /home/mritunjya/rooms/cryptography/crypto-hack/crackmes-one/glibc-2.34/build/libc_pic.a(strnlen.os)
 .debug_aranges
                0x0000000000000bf0       0x30 /home/mritunjya/rooms/cryptography/crypto-hack/crackmes-one/glibc-2.34/build/libc_pic.a(strncmp.os)
 .debug_aranges
                0x0000000000000c20       0x30 /home/mritunjya/rooms/cryptography/crypto-hack/crackmes-one/glibc-2.34/build/libc_pic.a(memchr.os)
 .debug_aranges
                0x0000000000000c50       0x30 /home/mritunjya/rooms/cryptography/crypto-hack/crackmes-one/glibc-2.34/build/libc_pic.a(memcmp.os)
 .debug_aranges
                0x0000000000000c80       0x30 /home/mritunjya/rooms/cryptography/crypto-hack/crackmes-one/glibc-2.34/build/libc_pic.a(memmove.os)
 .debug_aranges
                0x0000000000000cb0       0x30 /home/mritunjya/rooms/cryptography/crypto-hack/crackmes-one/glibc-2.34/build/libc_pic.a(memset.os)
 .debug_aranges
                0x0000000000000ce0       0x30 /home/mritunjya/rooms/cryptography/crypto-hack/crackmes-one/glibc-2.34/build/libc_pic.a(mempcpy.os)
 .debug_aranges
                0x0000000000000d10       0x30 /home/mritunjya/rooms/cryptography/crypto-hack/crackmes-one/glibc-2.34/build/libc_pic.a(stpcpy.os)
 .debug_aranges
                0x0000000000000d40       0x30 /home/mritunjya/rooms/cryptography/crypto-hack/crackmes-one/glibc-2.34/build/libc_pic.a(memcpy.os)
 .debug_aranges
                0x0000000000000d70       0x30 /home/mritunjya/rooms/cryptography/crypto-hack/crackmes-one/glibc-2.34/build/libc_pic.a(rawmemchr.os)
 .debug_aranges
                0x0000000000000da0       0x30 /home/mritunjya/rooms/cryptography/crypto-hack/crackmes-one/glibc-2.34/build/libc_pic.a(strcmp-sse2.os)
 .debug_aranges
                0x0000000000000dd0       0x30 /home/mritunjya/rooms/cryptography/crypto-hack/crackmes-one/glibc-2.34/build/libc_pic.a(strcmp-sse2-unaligned.os)
 .debug_aranges
                0x0000000000000e00       0x30 /home/mritunjya/rooms/cryptography/crypto-hack/crackmes-one/glibc-2.34/build/libc_pic.a(strcmp-ssse3.os)
 .debug_aranges
                0x0000000000000e30       0x30 /home/mritunjya/rooms/cryptography/crypto-hack/crackmes-one/glibc-2.34/build/libc_pic.a(strcmp-avx2.os)
 .debug_aranges
                0x0000000000000e60       0x30 /home/mritunjya/rooms/cryptography/crypto-hack/crackmes-one/glibc-2.34/build/libc_pic.a(strncmp-sse2.os)
 .debug_aranges
                0x0000000000000e90       0x30 /home/mritunjya/rooms/cryptography/crypto-hack/crackmes-one/glibc-2.34/build/libc_pic.a(strncmp-ssse3.os)
 .debug_aranges
                0x0000000000000ec0       0x30 /home/mritunjya/rooms/cryptography/crypto-hack/crackmes-one/glibc-2.34/build/libc_pic.a(strncmp-sse4_2.os)
 .debug_aranges
                0x0000000000000ef0       0x30 /home/mritunjya/rooms/cryptography/crypto-hack/crackmes-one/glibc-2.34/build/libc_pic.a(strncmp-avx2.os)
 .debug_aranges
                0x0000000000000f20       0x30 /home/mritunjya/rooms/cryptography/crypto-hack/crackmes-one/glibc-2.34/build/libc_pic.a(memchr-sse2.os)
 .debug_aranges
                0x0000000000000f50       0x30 /home/mritunjya/rooms/cryptography/crypto-hack/crackmes-one/glibc-2.34/build/libc_pic.a(rawmemchr-sse2.os)
 .debug_aranges
                0x0000000000000f80       0x30 /home/mritunjya/rooms/cryptography/crypto-hack/crackmes-one/glibc-2.34/build/libc_pic.a(memchr-avx2.os)
 .debug_aranges
                0x0000000000000fb0       0x30 /home/mritunjya/rooms/cryptography/crypto-hack/crackmes-one/glibc-2.34/build/libc_pic.a(rawmemchr-avx2.os)
 .debug_aranges
                0x0000000000000fe0       0x30 /home/mritunjya/rooms/cryptography/crypto-hack/crackmes-one/glibc-2.34/build/libc_pic.a(memcmp-sse2.os)
 .debug_aranges
                0x0000000000001010       0x30 /home/mritunjya/rooms/cryptography/crypto-hack/crackmes-one/glibc-2.34/build/libc_pic.a(memcmp-avx2-movbe.os)
 .debug_aranges
                0x0000000000001040       0x30 /home/mritunjya/rooms/cryptography/crypto-hack/crackmes-one/glibc-2.34/build/libc_pic.a(memcmp-sse4.os)
 .debug_aranges
                0x0000000000001070       0x30 /home/mritunjya/rooms/cryptography/crypto-hack/crackmes-one/glibc-2.34/build/libc_pic.a(memcpy-ssse3.os)
 .debug_aranges
                0x00000000000010a0       0x30 /home/mritunjya/rooms/cryptography/crypto-hack/crackmes-one/glibc-2.34/build/libc_pic.a(memmove-ssse3.os)
 .debug_aranges
                0x00000000000010d0       0x30 /home/mritunjya/rooms/cryptography/crypto-hack/crackmes-one/glibc-2.34/build/libc_pic.a(memcpy-ssse3-back.os)
 .debug_aranges
                0x0000000000001100       0x30 /home/mritunjya/rooms/cryptography/crypto-hack/crackmes-one/glibc-2.34/build/libc_pic.a(memmove-ssse3-back.os)
 .debug_aranges
                0x0000000000001130       0x30 /home/mritunjya/rooms/cryptography/crypto-hack/crackmes-one/glibc-2.34/build/libc_pic.a(memmove-avx512-no-vzeroupper.os)
 .debug_aranges
                0x0000000000001160       0x30 /home/mritunjya/rooms/cryptography/crypto-hack/crackmes-one/glibc-2.34/build/libc_pic.a(strchr-sse2.os)
 .debug_aranges
                0x0000000000001190       0x30 /home/mritunjya/rooms/cryptography/crypto-hack/crackmes-one/glibc-2.34/build/libc_pic.a(strchr-avx2.os)
 .debug_aranges
                0x00000000000011c0       0x30 /home/mritunjya/rooms/cryptography/crypto-hack/crackmes-one/glibc-2.34/build/libc_pic.a(strlen-sse2.os)
 .debug_aranges
                0x00000000000011f0       0x30 /home/mritunjya/rooms/cryptography/crypto-hack/crackmes-one/glibc-2.34/build/libc_pic.a(strnlen-sse2.os)
 .debug_aranges
                0x0000000000001220       0x30 /home/mritunjya/rooms/cryptography/crypto-hack/crackmes-one/glibc-2.34/build/libc_pic.a(strlen-avx2.os)
 .debug_aranges
                0x0000000000001250       0x30 /home/mritunjya/rooms/cryptography/crypto-hack/crackmes-one/glibc-2.34/build/libc_pic.a(strnlen-avx2.os)
 .debug_aranges
                0x0000000000001280       0x30 /home/mritunjya/rooms/cryptography/crypto-hack/crackmes-one/glibc-2.34/build/libc_pic.a(stpcpy-sse2.os)
 .debug_aranges
                0x00000000000012b0       0x30 /home/mritunjya/rooms/cryptography/crypto-hack/crackmes-one/glibc-2.34/build/libc_pic.a(stpcpy-ssse3.os)
 .debug_aranges
                0x00000000000012e0       0x30 /home/mritunjya/rooms/cryptography/crypto-hack/crackmes-one/glibc-2.34/build/libc_pic.a(stpcpy-sse2-unaligned.os)
 .debug_aranges
                0x0000000000001310       0x30 /home/mritunjya/rooms/cryptography/crypto-hack/crackmes-one/glibc-2.34/build/libc_pic.a(stpcpy-avx2.os)
 .debug_aranges
                0x0000000000001340       0x30 /home/mritunjya/rooms/cryptography/crypto-hack/crackmes-one/glibc-2.34/build/libc_pic.a(strchr-sse2-no-bsf.os)
 .debug_aranges
                0x0000000000001370       0x30 /home/mritunjya/rooms/cryptography/crypto-hack/crackmes-one/glibc-2.34/build/libc_pic.a(memcmp-ssse3.os)
 .debug_aranges
                0x00000000000013a0       0x30 /home/mritunjya/rooms/cryptography/crypto-hack/crackmes-one/glibc-2.34/build/libc_pic.a(strcspn-sse2.os)
 .debug_aranges
                0x00000000000013d0       0x30 /home/mritunjya/rooms/cryptography/crypto-hack/crackmes-one/glibc-2.34/build/libc_pic.a(strcspn-c.os)
 .debug_aranges
                0x0000000000001400       0x20 /home/mritunjya/rooms/cryptography/crypto-hack/crackmes-one/glibc-2.34/build/libc_pic.a(varshift.os)
 .debug_aranges
                0x0000000000001420       0x30 /home/mritunjya/rooms/cryptography/crypto-hack/crackmes-one/glibc-2.34/build/libc_pic.a(memset-avx512-no-vzeroupper.os)
 .debug_aranges
                0x0000000000001450       0x30 /home/mritunjya/rooms/cryptography/crypto-hack/crackmes-one/glibc-2.34/build/libc_pic.a(memmove-sse2-unaligned-erms.os)
 .debug_aranges
                0x0000000000001480       0x30 /home/mritunjya/rooms/cryptography/crypto-hack/crackmes-one/glibc-2.34/build/libc_pic.a(memmove-avx-unaligned-erms.os)
 .debug_aranges
                0x00000000000014b0       0x30 /home/mritunjya/rooms/cryptography/crypto-hack/crackmes-one/glibc-2.34/build/libc_pic.a(memmove-avx512-unaligned-erms.os)
 .debug_aranges
                0x00000000000014e0       0x30 /home/mritunjya/rooms/cryptography/crypto-hack/crackmes-one/glibc-2.34/build/libc_pic.a(memset-sse2-unaligned-erms.os)
 .debug_aranges
                0x0000000000001510       0x30 /home/mritunjya/rooms/cryptography/crypto-hack/crackmes-one/glibc-2.34/build/libc_pic.a(memset-avx2-unaligned-erms.os)
 .debug_aranges
                0x0000000000001540       0x30 /home/mritunjya/rooms/cryptography/crypto-hack/crackmes-one/glibc-2.34/build/libc_pic.a(memset-avx512-unaligned-erms.os)
 .debug_aranges
                0x0000000000001570       0x30 /home/mritunjya/rooms/cryptography/crypto-hack/crackmes-one/glibc-2.34/build/libc_pic.a(memchr-avx2-rtm.os)
 .debug_aranges
                0x00000000000015a0       0x30 /home/mritunjya/rooms/cryptography/crypto-hack/crackmes-one/glibc-2.34/build/libc_pic.a(memcmp-avx2-movbe-rtm.os)
 .debug_aranges
                0x00000000000015d0       0x30 /home/mritunjya/rooms/cryptography/crypto-hack/crackmes-one/glibc-2.34/build/libc_pic.a(memmove-avx-unaligned-erms-rtm.os)
 .debug_aranges
                0x0000000000001600       0x30 /home/mritunjya/rooms/cryptography/crypto-hack/crackmes-one/glibc-2.34/build/libc_pic.a(memset-avx2-unaligned-erms-rtm.os)
 .debug_aranges
                0x0000000000001630       0x30 /home/mritunjya/rooms/cryptography/crypto-hack/crackmes-one/glibc-2.34/build/libc_pic.a(rawmemchr-avx2-rtm.os)
 .debug_aranges
                0x0000000000001660       0x30 /home/mritunjya/rooms/cryptography/crypto-hack/crackmes-one/glibc-2.34/build/libc_pic.a(strchr-avx2-rtm.os)
 .debug_aranges
                0x0000000000001690       0x30 /home/mritunjya/rooms/cryptography/crypto-hack/crackmes-one/glibc-2.34/build/libc_pic.a(strcmp-avx2-rtm.os)
 .debug_aranges
                0x00000000000016c0       0x30 /home/mritunjya/rooms/cryptography/crypto-hack/crackmes-one/glibc-2.34/build/libc_pic.a(stpcpy-avx2-rtm.os)
 .debug_aranges
                0x00000000000016f0       0x30 /home/mritunjya/rooms/cryptography/crypto-hack/crackmes-one/glibc-2.34/build/libc_pic.a(strlen-avx2-rtm.os)
 .debug_aranges
                0x0000000000001720       0x30 /home/mritunjya/rooms/cryptography/crypto-hack/crackmes-one/glibc-2.34/build/libc_pic.a(strncmp-avx2-rtm.os)
 .debug_aranges
                0x0000000000001750       0x30 /home/mritunjya/rooms/cryptography/crypto-hack/crackmes-one/glibc-2.34/build/libc_pic.a(strnlen-avx2-rtm.os)
 .debug_aranges
                0x0000000000001780       0x30 /home/mritunjya/rooms/cryptography/crypto-hack/crackmes-one/glibc-2.34/build/libc_pic.a(memchr-evex.os)
 .debug_aranges
                0x00000000000017b0       0x30 /home/mritunjya/rooms/cryptography/crypto-hack/crackmes-one/glibc-2.34/build/libc_pic.a(memcmp-evex-movbe.os)
 .debug_aranges
                0x00000000000017e0       0x30 /home/mritunjya/rooms/cryptography/crypto-hack/crackmes-one/glibc-2.34/build/libc_pic.a(memmove-evex-unaligned-erms.os)
 .debug_aranges
                0x0000000000001810       0x30 /home/mritunjya/rooms/cryptography/crypto-hack/crackmes-one/glibc-2.34/build/libc_pic.a(memset-evex-unaligned-erms.os)
 .debug_aranges
                0x0000000000001840       0x30 /home/mritunjya/rooms/cryptography/crypto-hack/crackmes-one/glibc-2.34/build/libc_pic.a(rawmemchr-evex.os)
 .debug_aranges
                0x0000000000001870       0x30 /home/mritunjya/rooms/cryptography/crypto-hack/crackmes-one/glibc-2.34/build/libc_pic.a(stpcpy-evex.os)
 .debug_aranges
                0x00000000000018a0       0x30 /home/mritunjya/rooms/cryptography/crypto-hack/crackmes-one/glibc-2.34/build/libc_pic.a(strchr-evex.os)
 .debug_aranges
                0x00000000000018d0       0x30 /home/mritunjya/rooms/cryptography/crypto-hack/crackmes-one/glibc-2.34/build/libc_pic.a(strcmp-evex.os)
 .debug_aranges
                0x0000000000001900       0x30 /home/mritunjya/rooms/cryptography/crypto-hack/crackmes-one/glibc-2.34/build/libc_pic.a(strlen-evex.os)
 .debug_aranges
                0x0000000000001930       0x30 /home/mritunjya/rooms/cryptography/crypto-hack/crackmes-one/glibc-2.34/build/libc_pic.a(strncmp-evex.os)
 .debug_aranges
                0x0000000000001960       0x30 /home/mritunjya/rooms/cryptography/crypto-hack/crackmes-one/glibc-2.34/build/libc_pic.a(strnlen-evex.os)
 .debug_aranges
                0x0000000000001990       0x30 /home/mritunjya/rooms/cryptography/crypto-hack/crackmes-one/glibc-2.34/build/libc_pic.a(memchr-evex-rtm.os)
 .debug_aranges
                0x00000000000019c0       0x30 /home/mritunjya/rooms/cryptography/crypto-hack/crackmes-one/glibc-2.34/build/libc_pic.a(rawmemchr-evex-rtm.os)
 .debug_aranges
                0x00000000000019f0       0x30 /home/mritunjya/rooms/cryptography/crypto-hack/crackmes-one/glibc-2.34/build/libc_pic.a(cacheinfo.os)
 .debug_aranges
                0x0000000000001a20       0x30 /home/mritunjya/rooms/cryptography/crypto-hack/crackmes-one/glibc-2.34/build/libc_pic.a(closedir.os)
 .debug_aranges
                0x0000000000001a50       0x30 /home/mritunjya/rooms/cryptography/crypto-hack/crackmes-one/glibc-2.34/build/libc_pic.a(rewinddir.os)
 .debug_aranges
                0x0000000000001a80       0x30 /home/mritunjya/rooms/cryptography/crypto-hack/crackmes-one/glibc-2.34/build/libc_pic.a(readdir64.os)
 .debug_aranges
                0x0000000000001ab0       0x30 /home/mritunjya/rooms/cryptography/crypto-hack/crackmes-one/glibc-2.34/build/libc_pic.a(fdopendir.os)
 .debug_aranges
                0x0000000000001ae0       0x30 /home/mritunjya/rooms/cryptography/crypto-hack/crackmes-one/glibc-2.34/build/libc_pic.a(uname.os)
 .debug_aranges
                0x0000000000001b10       0x30 /home/mritunjya/rooms/cryptography/crypto-hack/crackmes-one/glibc-2.34/build/libc_pic.a(_exit.os)
 .debug_aranges
                0x0000000000001b40       0x30 /home/mritunjya/rooms/cryptography/crypto-hack/crackmes-one/glibc-2.34/build/libc_pic.a(getpid.os)
 .debug_aranges
                0x0000000000001b70       0x20 /home/mritunjya/rooms/cryptography/crypto-hack/crackmes-one/glibc-2.34/build/libc_pic.a(environ.os)
 .debug_aranges
                0x0000000000001b90       0x30 /home/mritunjya/rooms/cryptography/crypto-hack/crackmes-one/glibc-2.34/build/libc_pic.a(stat64.os)
 .debug_aranges
                0x0000000000001bc0       0x30 /home/mritunjya/rooms/cryptography/crypto-hack/crackmes-one/glibc-2.34/build/libc_pic.a(fstat64.os)
 .debug_aranges
                0x0000000000001bf0       0x30 /home/mritunjya/rooms/cryptography/crypto-hack/crackmes-one/glibc-2.34/build/libc_pic.a(lstat64.os)
 .debug_aranges
                0x0000000000001c20       0x30 /home/mritunjya/rooms/cryptography/crypto-hack/crackmes-one/glibc-2.34/build/libc_pic.a(fstatat64.os)
 .debug_aranges
                0x0000000000001c50       0x30 /home/mritunjya/rooms/cryptography/crypto-hack/crackmes-one/glibc-2.34/build/libc_pic.a(openat64.os)
 .debug_aranges
                0x0000000000001c80       0x30 /home/mritunjya/rooms/cryptography/crypto-hack/crackmes-one/glibc-2.34/build/libc_pic.a(lseek64.os)
 .debug_aranges
                0x0000000000001cb0       0x30 /home/mritunjya/rooms/cryptography/crypto-hack/crackmes-one/glibc-2.34/build/libc_pic.a(access.os)
 .debug_aranges
                0x0000000000001ce0       0x30 /home/mritunjya/rooms/cryptography/crypto-hack/crackmes-one/glibc-2.34/build/libc_pic.a(close_nocancel.os)
 .debug_aranges
                0x0000000000001d10       0x30 /home/mritunjya/rooms/cryptography/crypto-hack/crackmes-one/glibc-2.34/build/libc_pic.a(fcntl_nocancel.os)
 .debug_aranges
                0x0000000000001d40       0x30 /home/mritunjya/rooms/cryptography/crypto-hack/crackmes-one/glibc-2.34/build/libc_pic.a(open64_nocancel.os)
 .debug_aranges
                0x0000000000001d70       0x30 /home/mritunjya/rooms/cryptography/crypto-hack/crackmes-one/glibc-2.34/build/libc_pic.a(read_nocancel.os)
 .debug_aranges
                0x0000000000001da0       0x30 /home/mritunjya/rooms/cryptography/crypto-hack/crackmes-one/glibc-2.34/build/libc_pic.a(pread64_nocancel.os)
 .debug_aranges
                0x0000000000001dd0       0x30 /home/mritunjya/rooms/cryptography/crypto-hack/crackmes-one/glibc-2.34/build/libc_pic.a(write_nocancel.os)
 .debug_aranges
                0x0000000000001e00       0x30 /home/mritunjya/rooms/cryptography/crypto-hack/crackmes-one/glibc-2.34/build/libc_pic.a(mmap64.os)
 .debug_aranges
                0x0000000000001e30       0x30 /home/mritunjya/rooms/cryptography/crypto-hack/crackmes-one/glibc-2.34/build/libc_pic.a(munmap.os)
 .debug_aranges
                0x0000000000001e60       0x30 /home/mritunjya/rooms/cryptography/crypto-hack/crackmes-one/glibc-2.34/build/libc_pic.a(mprotect.os)
 .debug_aranges
                0x0000000000001e90       0x30 /home/mritunjya/rooms/cryptography/crypto-hack/crackmes-one/glibc-2.34/build/libc_pic.a(profil.os)
 .debug_aranges
                0x0000000000001ec0       0x30 /home/mritunjya/rooms/cryptography/crypto-hack/crackmes-one/glibc-2.34/build/libc_pic.a(prof-freq.os)
 .debug_aranges
                0x0000000000001ef0       0x30 /home/mritunjya/rooms/cryptography/crypto-hack/crackmes-one/glibc-2.34/build/libc_pic.a(dl-addr-obj.os)
 .debug_aranges
                0x0000000000001f20       0x30 /home/mritunjya/rooms/cryptography/crypto-hack/crackmes-one/glibc-2.34/build/libc_pic.a(sigaction.os)
 .debug_aranges
                0x0000000000001f50       0x30 /home/mritunjya/rooms/cryptography/crypto-hack/crackmes-one/glibc-2.34/build/libc_pic.a(libc_sigaction.os)
 .debug_aranges
                0x0000000000001f80       0x30 /home/mritunjya/rooms/cryptography/crypto-hack/crackmes-one/glibc-2.34/build/libc_pic.a(setitimer.os)
 .debug_aranges
                0x0000000000001fb0       0x30 /home/mritunjya/rooms/cryptography/crypto-hack/crackmes-one/glibc-2.34/build/libc_pic.a(getdents64.os)

.debug_pubnames
 *(.debug_pubnames)

.debug_info     0x0000000000000000    0xfcc5f
 *(.debug_info)
 .debug_info    0x0000000000000000    0xb6bc1 /home/mritunjya/rooms/cryptography/crypto-hack/crackmes-one/glibc-2.34/build/elf/dl-allobjs.os
 .debug_info    0x00000000000b6bc1      0xc75 /home/mritunjya/rooms/cryptography/crypto-hack/crackmes-one/glibc-2.34/build/libc_pic.a(check_fds.os)
 .debug_info    0x00000000000b7836      0x81e /home/mritunjya/rooms/cryptography/crypto-hack/crackmes-one/glibc-2.34/build/libc_pic.a(errno.os)
 .debug_info    0x00000000000b8054       0x2e /home/mritunjya/rooms/cryptography/crypto-hack/crackmes-one/glibc-2.34/build/libc_pic.a(setjmp.os)
 .debug_info    0x00000000000b8082       0x2e /home/mritunjya/rooms/cryptography/crypto-hack/crackmes-one/glibc-2.34/build/libc_pic.a(__longjmp.os)
 .debug_info    0x00000000000b80b0     0x1466 /home/mritunjya/rooms/cryptography/crypto-hack/crackmes-one/glibc-2.34/build/libc_pic.a(lowlevellock.os)
 .debug_info    0x00000000000b9516      0x483 /home/mritunjya/rooms/cryptography/crypto-hack/crackmes-one/glibc-2.34/build/libc_pic.a(scratch_buffer_set_array_size.os)
 .debug_info    0x00000000000b9999     0x2e0c /home/mritunjya/rooms/cryptography/crypto-hack/crackmes-one/glibc-2.34/build/libc_pic.a(strchr.os)
 .debug_info    0x00000000000bc7a5     0x2e0c /home/mritunjya/rooms/cryptography/crypto-hack/crackmes-one/glibc-2.34/build/libc_pic.a(strcmp.os)
 .debug_info    0x00000000000bf5b1     0x2d2e /home/mritunjya/rooms/cryptography/crypto-hack/crackmes-one/glibc-2.34/build/libc_pic.a(strcspn.os)
 .debug_info    0x00000000000c22df      0x2f0 /home/mritunjya/rooms/cryptography/crypto-hack/crackmes-one/glibc-2.34/build/libc_pic.a(strdup.os)
 .debug_info    0x00000000000c25cf     0x2e07 /home/mritunjya/rooms/cryptography/crypto-hack/crackmes-one/glibc-2.34/build/libc_pic.a(strlen.os)
 .debug_info    0x00000000000c53d6     0x2e0c /home/mritunjya/rooms/cryptography/crypto-hack/crackmes-one/glibc-2.34/build/libc_pic.a(strnlen.os)
 .debug_info    0x00000000000c81e2     0x2e11 /home/mritunjya/rooms/cryptography/crypto-hack/crackmes-one/glibc-2.34/build/libc_pic.a(strncmp.os)
 .debug_info    0x00000000000caff3     0x2e11 /home/mritunjya/rooms/cryptography/crypto-hack/crackmes-one/glibc-2.34/build/libc_pic.a(memchr.os)
 .debug_info    0x00000000000cde04     0x2e11 /home/mritunjya/rooms/cryptography/crypto-hack/crackmes-one/glibc-2.34/build/libc_pic.a(memcmp.os)
 .debug_info    0x00000000000d0c15     0x2e11 /home/mritunjya/rooms/cryptography/crypto-hack/crackmes-one/glibc-2.34/build/libc_pic.a(memmove.os)
 .debug_info    0x00000000000d3a26     0x2e11 /home/mritunjya/rooms/cryptography/crypto-hack/crackmes-one/glibc-2.34/build/libc_pic.a(memset.os)
 .debug_info    0x00000000000d6837     0x2e1b /home/mritunjya/rooms/cryptography/crypto-hack/crackmes-one/glibc-2.34/build/libc_pic.a(mempcpy.os)
 .debug_info    0x00000000000d9652     0x2e16 /home/mritunjya/rooms/cryptography/crypto-hack/crackmes-one/glibc-2.34/build/libc_pic.a(stpcpy.os)
 .debug_info    0x00000000000dc468     0x2e1b /home/mritunjya/rooms/cryptography/crypto-hack/crackmes-one/glibc-2.34/build/libc_pic.a(memcpy.os)
 .debug_info    0x00000000000df283     0x2e0c /home/mritunjya/rooms/cryptography/crypto-hack/crackmes-one/glibc-2.34/build/libc_pic.a(rawmemchr.os)
 .debug_info    0x00000000000e208f       0x2e /home/mritunjya/rooms/cryptography/crypto-hack/crackmes-one/glibc-2.34/build/libc_pic.a(strcmp-sse2.os)
 .debug_info    0x00000000000e20bd       0x2e /home/mritunjya/rooms/cryptography/crypto-hack/crackmes-one/glibc-2.34/build/libc_pic.a(strcmp-sse2-unaligned.os)
 .debug_info    0x00000000000e20eb       0x2e /home/mritunjya/rooms/cryptography/crypto-hack/crackmes-one/glibc-2.34/build/libc_pic.a(strcmp-ssse3.os)
 .debug_info    0x00000000000e2119       0x2e /home/mritunjya/rooms/cryptography/crypto-hack/crackmes-one/glibc-2.34/build/libc_pic.a(strcmp-avx2.os)
 .debug_info    0x00000000000e2147       0x2e /home/mritunjya/rooms/cryptography/crypto-hack/crackmes-one/glibc-2.34/build/libc_pic.a(strncmp-sse2.os)
 .debug_info    0x00000000000e2175       0x2e /home/mritunjya/rooms/cryptography/crypto-hack/crackmes-one/glibc-2.34/build/libc_pic.a(strncmp-ssse3.os)
 .debug_info    0x00000000000e21a3       0x2e /home/mritunjya/rooms/cryptography/crypto-hack/crackmes-one/glibc-2.34/build/libc_pic.a(strncmp-sse4_2.os)
 .debug_info    0x00000000000e21d1       0x2e /home/mritunjya/rooms/cryptography/crypto-hack/crackmes-one/glibc-2.34/build/libc_pic.a(strncmp-avx2.os)
 .debug_info    0x00000000000e21ff       0x2e /home/mritunjya/rooms/cryptography/crypto-hack/crackmes-one/glibc-2.34/build/libc_pic.a(memchr-sse2.os)
 .debug_info    0x00000000000e222d       0x2e /home/mritunjya/rooms/cryptography/crypto-hack/crackmes-one/glibc-2.34/build/libc_pic.a(rawmemchr-sse2.os)
 .debug_info    0x00000000000e225b       0x2e /home/mritunjya/rooms/cryptography/crypto-hack/crackmes-one/glibc-2.34/build/libc_pic.a(memchr-avx2.os)
 .debug_info    0x00000000000e2289       0x2e /home/mritunjya/rooms/cryptography/crypto-hack/crackmes-one/glibc-2.34/build/libc_pic.a(rawmemchr-avx2.os)
 .debug_info    0x00000000000e22b7       0x2e /home/mritunjya/rooms/cryptography/crypto-hack/crackmes-one/glibc-2.34/build/libc_pic.a(memcmp-sse2.os)
 .debug_info    0x00000000000e22e5       0x2e /home/mritunjya/rooms/cryptography/crypto-hack/crackmes-one/glibc-2.34/build/libc_pic.a(memcmp-avx2-movbe.os)
 .debug_info    0x00000000000e2313       0x2e /home/mritunjya/rooms/cryptography/crypto-hack/crackmes-one/glibc-2.34/build/libc_pic.a(memcmp-sse4.os)
 .debug_info    0x00000000000e2341       0x2e /home/mritunjya/rooms/cryptography/crypto-hack/crackmes-one/glibc-2.34/build/libc_pic.a(memcpy-ssse3.os)
 .debug_info    0x00000000000e236f       0x2e /home/mritunjya/rooms/cryptography/crypto-hack/crackmes-one/glibc-2.34/build/libc_pic.a(memmove-ssse3.os)
 .debug_info    0x00000000000e239d       0x2e /home/mritunjya/rooms/cryptography/crypto-hack/crackmes-one/glibc-2.34/build/libc_pic.a(memcpy-ssse3-back.os)
 .debug_info    0x00000000000e23cb       0x2e /home/mritunjya/rooms/cryptography/crypto-hack/crackmes-one/glibc-2.34/build/libc_pic.a(memmove-ssse3-back.os)
 .debug_info    0x00000000000e23f9       0x2e /home/mritunjya/rooms/cryptography/crypto-hack/crackmes-one/glibc-2.34/build/libc_pic.a(memmove-avx512-no-vzeroupper.os)
 .debug_info    0x00000000000e2427       0x2e /home/mritunjya/rooms/cryptography/crypto-hack/crackmes-one/glibc-2.34/build/libc_pic.a(strchr-sse2.os)
 .debug_info    0x00000000000e2455       0x2e /home/mritunjya/rooms/cryptography/crypto-hack/crackmes-one/glibc-2.34/build/libc_pic.a(strchr-avx2.os)
 .debug_info    0x00000000000e2483       0x2e /home/mritunjya/rooms/cryptography/crypto-hack/crackmes-one/glibc-2.34/build/libc_pic.a(strlen-sse2.os)
 .debug_info    0x00000000000e24b1       0x2e /home/mritunjya/rooms/cryptography/crypto-hack/crackmes-one/glibc-2.34/build/libc_pic.a(strnlen-sse2.os)
 .debug_info    0x00000000000e24df       0x2e /home/mritunjya/rooms/cryptography/crypto-hack/crackmes-one/glibc-2.34/build/libc_pic.a(strlen-avx2.os)
 .debug_info    0x00000000000e250d       0x2e /home/mritunjya/rooms/cryptography/crypto-hack/crackmes-one/glibc-2.34/build/libc_pic.a(strnlen-avx2.os)
 .debug_info    0x00000000000e253b       0x2e /home/mritunjya/rooms/cryptography/crypto-hack/crackmes-one/glibc-2.34/build/libc_pic.a(stpcpy-sse2.os)
 .debug_info    0x00000000000e2569       0x2e /home/mritunjya/rooms/cryptography/crypto-hack/crackmes-one/glibc-2.34/build/libc_pic.a(stpcpy-ssse3.os)
 .debug_info    0x00000000000e2597       0x2e /home/mritunjya/rooms/cryptography/crypto-hack/crackmes-one/glibc-2.34/build/libc_pic.a(stpcpy-sse2-unaligned.os)
 .debug_info    0x00000000000e25c5       0x2e /home/mritunjya/rooms/cryptography/crypto-hack/crackmes-one/glibc-2.34/build/libc_pic.a(stpcpy-avx2.os)
 .debug_info    0x00000000000e25f3       0x2e /home/mritunjya/rooms/cryptography/crypto-hack/crackmes-one/glibc-2.34/build/libc_pic.a(strchr-sse2-no-bsf.os)
 .debug_info    0x00000000000e2621       0x2e /home/mritunjya/rooms/cryptography/crypto-hack/crackmes-one/glibc-2.34/build/libc_pic.a(memcmp-ssse3.os)
 .debug_info    0x00000000000e264f       0x2e /home/mritunjya/rooms/cryptography/crypto-hack/crackmes-one/glibc-2.34/build/libc_pic.a(strcspn-sse2.os)
 .debug_info    0x00000000000e267d      0xa74 /home/mritunjya/rooms/cryptography/crypto-hack/crackmes-one/glibc-2.34/build/libc_pic.a(strcspn-c.os)
 .debug_info    0x00000000000e30f1      0x192 /home/mritunjya/rooms/cryptography/crypto-hack/crackmes-one/glibc-2.34/build/libc_pic.a(varshift.os)
 .debug_info    0x00000000000e3283       0x2e /home/mritunjya/rooms/cryptography/crypto-hack/crackmes-one/glibc-2.34/build/libc_pic.a(memset-avx512-no-vzeroupper.os)
 .debug_info    0x00000000000e32b1       0x2e /home/mritunjya/rooms/cryptography/crypto-hack/crackmes-one/glibc-2.34/build/libc_pic.a(memmove-sse2-unaligned-erms.os)
 .debug_info    0x00000000000e32df       0x2e /home/mritunjya/rooms/cryptography/crypto-hack/crackmes-one/glibc-2.34/build/libc_pic.a(memmove-avx-unaligned-erms.os)
 .debug_info    0x00000000000e330d       0x2e /home/mritunjya/rooms/cryptography/crypto-hack/crackmes-one/glibc-2.34/build/libc_pic.a(memmove-avx512-unaligned-erms.os)
 .debug_info    0x00000000000e333b       0x2e /home/mritunjya/rooms/cryptography/crypto-hack/crackmes-one/glibc-2.34/build/libc_pic.a(memset-sse2-unaligned-erms.os)
 .debug_info    0x00000000000e3369       0x2e /home/mritunjya/rooms/cryptography/crypto-hack/crackmes-one/glibc-2.34/build/libc_pic.a(memset-avx2-unaligned-erms.os)
 .debug_info    0x00000000000e3397       0x2e /home/mritunjya/rooms/cryptography/crypto-hack/crackmes-one/glibc-2.34/build/libc_pic.a(memset-avx512-unaligned-erms.os)
 .debug_info    0x00000000000e33c5       0x2e /home/mritunjya/rooms/cryptography/crypto-hack/crackmes-one/glibc-2.34/build/libc_pic.a(memchr-avx2-rtm.os)
 .debug_info    0x00000000000e33f3       0x2e /home/mritunjya/rooms/cryptography/crypto-hack/crackmes-one/glibc-2.34/build/libc_pic.a(memcmp-avx2-movbe-rtm.os)
 .debug_info    0x00000000000e3421       0x2e /home/mritunjya/rooms/cryptography/crypto-hack/crackmes-one/glibc-2.34/build/libc_pic.a(memmove-avx-unaligned-erms-rtm.os)
 .debug_info    0x00000000000e344f       0x2e /home/mritunjya/rooms/cryptography/crypto-hack/crackmes-one/glibc-2.34/build/libc_pic.a(memset-avx2-unaligned-erms-rtm.os)
 .debug_info    0x00000000000e347d       0x2e /home/mritunjya/rooms/cryptography/crypto-hack/crackmes-one/glibc-2.34/build/libc_pic.a(rawmemchr-avx2-rtm.os)
 .debug_info    0x00000000000e34ab       0x2e /home/mritunjya/rooms/cryptography/crypto-hack/crackmes-one/glibc-2.34/build/libc_pic.a(strchr-avx2-rtm.os)
 .debug_info    0x00000000000e34d9       0x2e /home/mritunjya/rooms/cryptography/crypto-hack/crackmes-one/glibc-2.34/build/libc_pic.a(strcmp-avx2-rtm.os)
 .debug_info    0x00000000000e3507       0x2e /home/mritunjya/rooms/cryptography/crypto-hack/crackmes-one/glibc-2.34/build/libc_pic.a(stpcpy-avx2-rtm.os)
 .debug_info    0x00000000000e3535       0x2e /home/mritunjya/rooms/cryptography/crypto-hack/crackmes-one/glibc-2.34/build/libc_pic.a(strlen-avx2-rtm.os)
 .debug_info    0x00000000000e3563       0x2e /home/mritunjya/rooms/cryptography/crypto-hack/crackmes-one/glibc-2.34/build/libc_pic.a(strncmp-avx2-rtm.os)
 .debug_info    0x00000000000e3591       0x2e /home/mritunjya/rooms/cryptography/crypto-hack/crackmes-one/glibc-2.34/build/libc_pic.a(strnlen-avx2-rtm.os)
 .debug_info    0x00000000000e35bf       0x2e /home/mritunjya/rooms/cryptography/crypto-hack/crackmes-one/glibc-2.34/build/libc_pic.a(memchr-evex.os)
 .debug_info    0x00000000000e35ed       0x2e /home/mritunjya/rooms/cryptography/crypto-hack/crackmes-one/glibc-2.34/build/libc_pic.a(memcmp-evex-movbe.os)
 .debug_info    0x00000000000e361b       0x2e /home/mritunjya/rooms/cryptography/crypto-hack/crackmes-one/glibc-2.34/build/libc_pic.a(memmove-evex-unaligned-erms.os)
 .debug_info    0x00000000000e3649       0x2e /home/mritunjya/rooms/cryptography/crypto-hack/crackmes-one/glibc-2.34/build/libc_pic.a(memset-evex-unaligned-erms.os)
 .debug_info    0x00000000000e3677       0x2e /home/mritunjya/rooms/cryptography/crypto-hack/crackmes-one/glibc-2.34/build/libc_pic.a(rawmemchr-evex.os)
 .debug_info    0x00000000000e36a5       0x2e /home/mritunjya/rooms/cryptography/crypto-hack/crackmes-one/glibc-2.34/build/libc_pic.a(stpcpy-evex.os)
 .debug_info    0x00000000000e36d3       0x2e /home/mritunjya/rooms/cryptography/crypto-hack/crackmes-one/glibc-2.34/build/libc_pic.a(strchr-evex.os)
 .debug_info    0x00000000000e3701       0x2e /home/mritunjya/rooms/cryptography/crypto-hack/crackmes-one/glibc-2.34/build/libc_pic.a(strcmp-evex.os)
 .debug_info    0x00000000000e372f       0x2e /home/mritunjya/rooms/cryptography/crypto-hack/crackmes-one/glibc-2.34/build/libc_pic.a(strlen-evex.os)
 .debug_info    0x00000000000e375d       0x2e /home/mritunjya/rooms/cryptography/crypto-hack/crackmes-one/glibc-2.34/build/libc_pic.a(strncmp-evex.os)
 .debug_info    0x00000000000e378b       0x2e /home/mritunjya/rooms/cryptography/crypto-hack/crackmes-one/glibc-2.34/build/libc_pic.a(strnlen-evex.os)
 .debug_info    0x00000000000e37b9       0x2e /home/mritunjya/rooms/cryptography/crypto-hack/crackmes-one/glibc-2.34/build/libc_pic.a(memchr-evex-rtm.os)
 .debug_info    0x00000000000e37e7       0x2e /home/mritunjya/rooms/cryptography/crypto-hack/crackmes-one/glibc-2.34/build/libc_pic.a(rawmemchr-evex-rtm.os)
 .debug_info    0x00000000000e3815     0x35be /home/mritunjya/rooms/cryptography/crypto-hack/crackmes-one/glibc-2.34/build/libc_pic.a(cacheinfo.os)
 .debug_info    0x00000000000e6dd3      0x9d6 /home/mritunjya/rooms/cryptography/crypto-hack/crackmes-one/glibc-2.34/build/libc_pic.a(closedir.os)
 .debug_info    0x00000000000e77a9      0xa97 /home/mritunjya/rooms/cryptography/crypto-hack/crackmes-one/glibc-2.34/build/libc_pic.a(rewinddir.os)
 .debug_info    0x00000000000e8240      0xb3d /home/mritunjya/rooms/cryptography/crypto-hack/crackmes-one/glibc-2.34/build/libc_pic.a(readdir64.os)
 .debug_info    0x00000000000e8d7d      0xba6 /home/mritunjya/rooms/cryptography/crypto-hack/crackmes-one/glibc-2.34/build/libc_pic.a(fdopendir.os)
 .debug_info    0x00000000000e9923       0x2e /home/mritunjya/rooms/cryptography/crypto-hack/crackmes-one/glibc-2.34/build/libc_pic.a(uname.os)
 .debug_info    0x00000000000e9951      0x95b /home/mritunjya/rooms/cryptography/crypto-hack/crackmes-one/glibc-2.34/build/libc_pic.a(_exit.os)
 .debug_info    0x00000000000ea2ac       0x2e /home/mritunjya/rooms/cryptography/crypto-hack/crackmes-one/glibc-2.34/build/libc_pic.a(getpid.os)
 .debug_info    0x00000000000ea2da       0xff /home/mritunjya/rooms/cryptography/crypto-hack/crackmes-one/glibc-2.34/build/libc_pic.a(environ.os)
 .debug_info    0x00000000000ea3d9      0x299 /home/mritunjya/rooms/cryptography/crypto-hack/crackmes-one/glibc-2.34/build/libc_pic.a(stat64.os)
 .debug_info    0x00000000000ea672      0x2c0 /home/mritunjya/rooms/cryptography/crypto-hack/crackmes-one/glibc-2.34/build/libc_pic.a(fstat64.os)
 .debug_info    0x00000000000ea932      0x29b /home/mritunjya/rooms/cryptography/crypto-hack/crackmes-one/glibc-2.34/build/libc_pic.a(lstat64.os)
 .debug_info    0x00000000000eabcd      0xbc8 /home/mritunjya/rooms/cryptography/crypto-hack/crackmes-one/glibc-2.34/build/libc_pic.a(fstatat64.os)
 .debug_info    0x00000000000eb795     0x1729 /home/mritunjya/rooms/cryptography/crypto-hack/crackmes-one/glibc-2.34/build/libc_pic.a(openat64.os)
 .debug_info    0x00000000000ecebe      0x984 /home/mritunjya/rooms/cryptography/crypto-hack/crackmes-one/glibc-2.34/build/libc_pic.a(lseek64.os)
 .debug_info    0x00000000000ed842      0x947 /home/mritunjya/rooms/cryptography/crypto-hack/crackmes-one/glibc-2.34/build/libc_pic.a(access.os)
 .debug_info    0x00000000000ee189      0x916 /home/mritunjya/rooms/cryptography/crypto-hack/crackmes-one/glibc-2.34/build/libc_pic.a(close_nocancel.os)
 .debug_info    0x00000000000eea9f      0xc49 /home/mritunjya/rooms/cryptography/crypto-hack/crackmes-one/glibc-2.34/build/libc_pic.a(fcntl_nocancel.os)
 .debug_info    0x00000000000ef6e8      0xa42 /home/mritunjya/rooms/cryptography/crypto-hack/crackmes-one/glibc-2.34/build/libc_pic.a(open64_nocancel.os)
 .debug_info    0x00000000000f012a      0x9a2 /home/mritunjya/rooms/cryptography/crypto-hack/crackmes-one/glibc-2.34/build/libc_pic.a(read_nocancel.os)
 .debug_info    0x00000000000f0acc      0x9e4 /home/mritunjya/rooms/cryptography/crypto-hack/crackmes-one/glibc-2.34/build/libc_pic.a(pread64_nocancel.os)
 .debug_info    0x00000000000f14b0      0x9a7 /home/mritunjya/rooms/cryptography/crypto-hack/crackmes-one/glibc-2.34/build/libc_pic.a(write_nocancel.os)
 .debug_info    0x00000000000f1e57     0x31be /home/mritunjya/rooms/cryptography/crypto-hack/crackmes-one/glibc-2.34/build/libc_pic.a(mmap64.os)
 .debug_info    0x00000000000f5015       0x2e /home/mritunjya/rooms/cryptography/crypto-hack/crackmes-one/glibc-2.34/build/libc_pic.a(munmap.os)
 .debug_info    0x00000000000f5043       0x2e /home/mritunjya/rooms/cryptography/crypto-hack/crackmes-one/glibc-2.34/build/libc_pic.a(mprotect.os)
 .debug_info    0x00000000000f5071      0xe18 /home/mritunjya/rooms/cryptography/crypto-hack/crackmes-one/glibc-2.34/build/libc_pic.a(profil.os)
 .debug_info    0x00000000000f5e89     0x2c6c /home/mritunjya/rooms/cryptography/crypto-hack/crackmes-one/glibc-2.34/build/libc_pic.a(prof-freq.os)
 .debug_info    0x00000000000f8af5     0x1350 /home/mritunjya/rooms/cryptography/crypto-hack/crackmes-one/glibc-2.34/build/libc_pic.a(dl-addr-obj.os)
 .debug_info    0x00000000000f9e45      0xdd1 /home/mritunjya/rooms/cryptography/crypto-hack/crackmes-one/glibc-2.34/build/libc_pic.a(sigaction.os)
 .debug_info    0x00000000000fac16      0xd5e /home/mritunjya/rooms/cryptography/crypto-hack/crackmes-one/glibc-2.34/build/libc_pic.a(libc_sigaction.os)
 .debug_info    0x00000000000fb974      0x9bd /home/mritunjya/rooms/cryptography/crypto-hack/crackmes-one/glibc-2.34/build/libc_pic.a(setitimer.os)
 .debug_info    0x00000000000fc331      0x92e /home/mritunjya/rooms/cryptography/crypto-hack/crackmes-one/glibc-2.34/build/libc_pic.a(getdents64.os)

.debug_abbrev   0x0000000000000000    0x1973a
 *(.debug_abbrev)
 .debug_abbrev  0x0000000000000000    0x10f53 /home/mritunjya/rooms/cryptography/crypto-hack/crackmes-one/glibc-2.34/build/elf/dl-allobjs.os
 .debug_abbrev  0x0000000000010f53      0x26d /home/mritunjya/rooms/cryptography/crypto-hack/crackmes-one/glibc-2.34/build/libc_pic.a(check_fds.os)
 .debug_abbrev  0x00000000000111c0      0x165 /home/mritunjya/rooms/cryptography/crypto-hack/crackmes-one/glibc-2.34/build/libc_pic.a(errno.os)
 .debug_abbrev  0x0000000000011325       0x14 /home/mritunjya/rooms/cryptography/crypto-hack/crackmes-one/glibc-2.34/build/libc_pic.a(setjmp.os)
 .debug_abbrev  0x0000000000011339       0x14 /home/mritunjya/rooms/cryptography/crypto-hack/crackmes-one/glibc-2.34/build/libc_pic.a(__longjmp.os)
 .debug_abbrev  0x000000000001134d      0x318 /home/mritunjya/rooms/cryptography/crypto-hack/crackmes-one/glibc-2.34/build/libc_pic.a(lowlevellock.os)
 .debug_abbrev  0x0000000000011665      0x251 /home/mritunjya/rooms/cryptography/crypto-hack/crackmes-one/glibc-2.34/build/libc_pic.a(scratch_buffer_set_array_size.os)
 .debug_abbrev  0x00000000000118b6      0x3f3 /home/mritunjya/rooms/cryptography/crypto-hack/crackmes-one/glibc-2.34/build/libc_pic.a(strchr.os)
 .debug_abbrev  0x0000000000011ca9      0x3f3 /home/mritunjya/rooms/cryptography/crypto-hack/crackmes-one/glibc-2.34/build/libc_pic.a(strcmp.os)
 .debug_abbrev  0x000000000001209c      0x3d2 /home/mritunjya/rooms/cryptography/crypto-hack/crackmes-one/glibc-2.34/build/libc_pic.a(strcspn.os)
 .debug_abbrev  0x000000000001246e      0x19a /home/mritunjya/rooms/cryptography/crypto-hack/crackmes-one/glibc-2.34/build/libc_pic.a(strdup.os)
 .debug_abbrev  0x0000000000012608      0x3f3 /home/mritunjya/rooms/cryptography/crypto-hack/crackmes-one/glibc-2.34/build/libc_pic.a(strlen.os)
 .debug_abbrev  0x00000000000129fb      0x3f3 /home/mritunjya/rooms/cryptography/crypto-hack/crackmes-one/glibc-2.34/build/libc_pic.a(strnlen.os)
 .debug_abbrev  0x0000000000012dee      0x3f3 /home/mritunjya/rooms/cryptography/crypto-hack/crackmes-one/glibc-2.34/build/libc_pic.a(strncmp.os)
 .debug_abbrev  0x00000000000131e1      0x3f3 /home/mritunjya/rooms/cryptography/crypto-hack/crackmes-one/glibc-2.34/build/libc_pic.a(memchr.os)
 .debug_abbrev  0x00000000000135d4      0x3f3 /home/mritunjya/rooms/cryptography/crypto-hack/crackmes-one/glibc-2.34/build/libc_pic.a(memcmp.os)
 .debug_abbrev  0x00000000000139c7      0x3f3 /home/mritunjya/rooms/cryptography/crypto-hack/crackmes-one/glibc-2.34/build/libc_pic.a(memmove.os)
 .debug_abbrev  0x0000000000013dba      0x3f3 /home/mritunjya/rooms/cryptography/crypto-hack/crackmes-one/glibc-2.34/build/libc_pic.a(memset.os)
 .debug_abbrev  0x00000000000141ad      0x3f3 /home/mritunjya/rooms/cryptography/crypto-hack/crackmes-one/glibc-2.34/build/libc_pic.a(mempcpy.os)
 .debug_abbrev  0x00000000000145a0      0x3f3 /home/mritunjya/rooms/cryptography/crypto-hack/crackmes-one/glibc-2.34/build/libc_pic.a(stpcpy.os)
 .debug_abbrev  0x0000000000014993      0x3f3 /home/mritunjya/rooms/cryptography/crypto-hack/crackmes-one/glibc-2.34/build/libc_pic.a(memcpy.os)
 .debug_abbrev  0x0000000000014d86      0x3f3 /home/mritunjya/rooms/cryptography/crypto-hack/crackmes-one/glibc-2.34/build/libc_pic.a(rawmemchr.os)
 .debug_abbrev  0x0000000000015179       0x14 /home/mritunjya/rooms/cryptography/crypto-hack/crackmes-one/glibc-2.34/build/libc_pic.a(strcmp-sse2.os)
 .debug_abbrev  0x000000000001518d       0x14 /home/mritunjya/rooms/cryptography/crypto-hack/crackmes-one/glibc-2.34/build/libc_pic.a(strcmp-sse2-unaligned.os)
 .debug_abbrev  0x00000000000151a1       0x14 /home/mritunjya/rooms/cryptography/crypto-hack/crackmes-one/glibc-2.34/build/libc_pic.a(strcmp-ssse3.os)
 .debug_abbrev  0x00000000000151b5       0x14 /home/mritunjya/rooms/cryptography/crypto-hack/crackmes-one/glibc-2.34/build/libc_pic.a(strcmp-avx2.os)
 .debug_abbrev  0x00000000000151c9       0x14 /home/mritunjya/rooms/cryptography/crypto-hack/crackmes-one/glibc-2.34/build/libc_pic.a(strncmp-sse2.os)
 .debug_abbrev  0x00000000000151dd       0x14 /home/mritunjya/rooms/cryptography/crypto-hack/crackmes-one/glibc-2.34/build/libc_pic.a(strncmp-ssse3.os)
 .debug_abbrev  0x00000000000151f1       0x14 /home/mritunjya/rooms/cryptography/crypto-hack/crackmes-one/glibc-2.34/build/libc_pic.a(strncmp-sse4_2.os)
 .debug_abbrev  0x0000000000015205       0x14 /home/mritunjya/rooms/cryptography/crypto-hack/crackmes-one/glibc-2.34/build/libc_pic.a(strncmp-avx2.os)
 .debug_abbrev  0x0000000000015219       0x14 /home/mritunjya/rooms/cryptography/crypto-hack/crackmes-one/glibc-2.34/build/libc_pic.a(memchr-sse2.os)
 .debug_abbrev  0x000000000001522d       0x14 /home/mritunjya/rooms/cryptography/crypto-hack/crackmes-one/glibc-2.34/build/libc_pic.a(rawmemchr-sse2.os)
 .debug_abbrev  0x0000000000015241       0x14 /home/mritunjya/rooms/cryptography/crypto-hack/crackmes-one/glibc-2.34/build/libc_pic.a(memchr-avx2.os)
 .debug_abbrev  0x0000000000015255       0x14 /home/mritunjya/rooms/cryptography/crypto-hack/crackmes-one/glibc-2.34/build/libc_pic.a(rawmemchr-avx2.os)
 .debug_abbrev  0x0000000000015269       0x14 /home/mritunjya/rooms/cryptography/crypto-hack/crackmes-one/glibc-2.34/build/libc_pic.a(memcmp-sse2.os)
 .debug_abbrev  0x000000000001527d       0x14 /home/mritunjya/rooms/cryptography/crypto-hack/crackmes-one/glibc-2.34/build/libc_pic.a(memcmp-avx2-movbe.os)
 .debug_abbrev  0x0000000000015291       0x14 /home/mritunjya/rooms/cryptography/crypto-hack/crackmes-one/glibc-2.34/build/libc_pic.a(memcmp-sse4.os)
 .debug_abbrev  0x00000000000152a5       0x14 /home/mritunjya/rooms/cryptography/crypto-hack/crackmes-one/glibc-2.34/build/libc_pic.a(memcpy-ssse3.os)
 .debug_abbrev  0x00000000000152b9       0x14 /home/mritunjya/rooms/cryptography/crypto-hack/crackmes-one/glibc-2.34/build/libc_pic.a(memmove-ssse3.os)
 .debug_abbrev  0x00000000000152cd       0x14 /home/mritunjya/rooms/cryptography/crypto-hack/crackmes-one/glibc-2.34/build/libc_pic.a(memcpy-ssse3-back.os)
 .debug_abbrev  0x00000000000152e1       0x14 /home/mritunjya/rooms/cryptography/crypto-hack/crackmes-one/glibc-2.34/build/libc_pic.a(memmove-ssse3-back.os)
 .debug_abbrev  0x00000000000152f5       0x14 /home/mritunjya/rooms/cryptography/crypto-hack/crackmes-one/glibc-2.34/build/libc_pic.a(memmove-avx512-no-vzeroupper.os)
 .debug_abbrev  0x0000000000015309       0x14 /home/mritunjya/rooms/cryptography/crypto-hack/crackmes-one/glibc-2.34/build/libc_pic.a(strchr-sse2.os)
 .debug_abbrev  0x000000000001531d       0x14 /home/mritunjya/rooms/cryptography/crypto-hack/crackmes-one/glibc-2.34/build/libc_pic.a(strchr-avx2.os)
 .debug_abbrev  0x0000000000015331       0x14 /home/mritunjya/rooms/cryptography/crypto-hack/crackmes-one/glibc-2.34/build/libc_pic.a(strlen-sse2.os)
 .debug_abbrev  0x0000000000015345       0x14 /home/mritunjya/rooms/cryptography/crypto-hack/crackmes-one/glibc-2.34/build/libc_pic.a(strnlen-sse2.os)
 .debug_abbrev  0x0000000000015359       0x14 /home/mritunjya/rooms/cryptography/crypto-hack/crackmes-one/glibc-2.34/build/libc_pic.a(strlen-avx2.os)
 .debug_abbrev  0x000000000001536d       0x14 /home/mritunjya/rooms/cryptography/crypto-hack/crackmes-one/glibc-2.34/build/libc_pic.a(strnlen-avx2.os)
 .debug_abbrev  0x0000000000015381       0x14 /home/mritunjya/rooms/cryptography/crypto-hack/crackmes-one/glibc-2.34/build/libc_pic.a(stpcpy-sse2.os)
 .debug_abbrev  0x0000000000015395       0x14 /home/mritunjya/rooms/cryptography/crypto-hack/crackmes-one/glibc-2.34/build/libc_pic.a(stpcpy-ssse3.os)
 .debug_abbrev  0x00000000000153a9       0x14 /home/mritunjya/rooms/cryptography/crypto-hack/crackmes-one/glibc-2.34/build/libc_pic.a(stpcpy-sse2-unaligned.os)
 .debug_abbrev  0x00000000000153bd       0x14 /home/mritunjya/rooms/cryptography/crypto-hack/crackmes-one/glibc-2.34/build/libc_pic.a(stpcpy-avx2.os)
 .debug_abbrev  0x00000000000153d1       0x14 /home/mritunjya/rooms/cryptography/crypto-hack/crackmes-one/glibc-2.34/build/libc_pic.a(strchr-sse2-no-bsf.os)
 .debug_abbrev  0x00000000000153e5       0x14 /home/mritunjya/rooms/cryptography/crypto-hack/crackmes-one/glibc-2.34/build/libc_pic.a(memcmp-ssse3.os)
 .debug_abbrev  0x00000000000153f9       0x14 /home/mritunjya/rooms/cryptography/crypto-hack/crackmes-one/glibc-2.34/build/libc_pic.a(strcspn-sse2.os)
 .debug_abbrev  0x000000000001540d      0x270 /home/mritunjya/rooms/cryptography/crypto-hack/crackmes-one/glibc-2.34/build/libc_pic.a(strcspn-c.os)
 .debug_abbrev  0x000000000001567d       0xc8 /home/mritunjya/rooms/cryptography/crypto-hack/crackmes-one/glibc-2.34/build/libc_pic.a(varshift.os)
 .debug_abbrev  0x0000000000015745       0x14 /home/mritunjya/rooms/cryptography/crypto-hack/crackmes-one/glibc-2.34/build/libc_pic.a(memset-avx512-no-vzeroupper.os)
 .debug_abbrev  0x0000000000015759       0x14 /home/mritunjya/rooms/cryptography/crypto-hack/crackmes-one/glibc-2.34/build/libc_pic.a(memmove-sse2-unaligned-erms.os)
 .debug_abbrev  0x000000000001576d       0x14 /home/mritunjya/rooms/cryptography/crypto-hack/crackmes-one/glibc-2.34/build/libc_pic.a(memmove-avx-unaligned-erms.os)
 .debug_abbrev  0x0000000000015781       0x14 /home/mritunjya/rooms/cryptography/crypto-hack/crackmes-one/glibc-2.34/build/libc_pic.a(memmove-avx512-unaligned-erms.os)
 .debug_abbrev  0x0000000000015795       0x14 /home/mritunjya/rooms/cryptography/crypto-hack/crackmes-one/glibc-2.34/build/libc_pic.a(memset-sse2-unaligned-erms.os)
 .debug_abbrev  0x00000000000157a9       0x14 /home/mritunjya/rooms/cryptography/crypto-hack/crackmes-one/glibc-2.34/build/libc_pic.a(memset-avx2-unaligned-erms.os)
 .debug_abbrev  0x00000000000157bd       0x14 /home/mritunjya/rooms/cryptography/crypto-hack/crackmes-one/glibc-2.34/build/libc_pic.a(memset-avx512-unaligned-erms.os)
 .debug_abbrev  0x00000000000157d1       0x14 /home/mritunjya/rooms/cryptography/crypto-hack/crackmes-one/glibc-2.34/build/libc_pic.a(memchr-avx2-rtm.os)
 .debug_abbrev  0x00000000000157e5       0x14 /home/mritunjya/rooms/cryptography/crypto-hack/crackmes-one/glibc-2.34/build/libc_pic.a(memcmp-avx2-movbe-rtm.os)
 .debug_abbrev  0x00000000000157f9       0x14 /home/mritunjya/rooms/cryptography/crypto-hack/crackmes-one/glibc-2.34/build/libc_pic.a(memmove-avx-unaligned-erms-rtm.os)
 .debug_abbrev  0x000000000001580d       0x14 /home/mritunjya/rooms/cryptography/crypto-hack/crackmes-one/glibc-2.34/build/libc_pic.a(memset-avx2-unaligned-erms-rtm.os)
 .debug_abbrev  0x0000000000015821       0x14 /home/mritunjya/rooms/cryptography/crypto-hack/crackmes-one/glibc-2.34/build/libc_pic.a(rawmemchr-avx2-rtm.os)
 .debug_abbrev  0x0000000000015835       0x14 /home/mritunjya/rooms/cryptography/crypto-hack/crackmes-one/glibc-2.34/build/libc_pic.a(strchr-avx2-rtm.os)
 .debug_abbrev  0x0000000000015849       0x14 /home/mritunjya/rooms/cryptography/crypto-hack/crackmes-one/glibc-2.34/build/libc_pic.a(strcmp-avx2-rtm.os)
 .debug_abbrev  0x000000000001585d       0x14 /home/mritunjya/rooms/cryptography/crypto-hack/crackmes-one/glibc-2.34/build/libc_pic.a(stpcpy-avx2-rtm.os)
 .debug_abbrev  0x0000000000015871       0x14 /home/mritunjya/rooms/cryptography/crypto-hack/crackmes-one/glibc-2.34/build/libc_pic.a(strlen-avx2-rtm.os)
 .debug_abbrev  0x0000000000015885       0x14 /home/mritunjya/rooms/cryptography/crypto-hack/crackmes-one/glibc-2.34/build/libc_pic.a(strncmp-avx2-rtm.os)
 .debug_abbrev  0x0000000000015899       0x14 /home/mritunjya/rooms/cryptography/crypto-hack/crackmes-one/glibc-2.34/build/libc_pic.a(strnlen-avx2-rtm.os)
 .debug_abbrev  0x00000000000158ad       0x14 /home/mritunjya/rooms/cryptography/crypto-hack/crackmes-one/glibc-2.34/build/libc_pic.a(memchr-evex.os)
 .debug_abbrev  0x00000000000158c1       0x14 /home/mritunjya/rooms/cryptography/crypto-hack/crackmes-one/glibc-2.34/build/libc_pic.a(memcmp-evex-movbe.os)
 .debug_abbrev  0x00000000000158d5       0x14 /home/mritunjya/rooms/cryptography/crypto-hack/crackmes-one/glibc-2.34/build/libc_pic.a(memmove-evex-unaligned-erms.os)
 .debug_abbrev  0x00000000000158e9       0x14 /home/mritunjya/rooms/cryptography/crypto-hack/crackmes-one/glibc-2.34/build/libc_pic.a(memset-evex-unaligned-erms.os)
 .debug_abbrev  0x00000000000158fd       0x14 /home/mritunjya/rooms/cryptography/crypto-hack/crackmes-one/glibc-2.34/build/libc_pic.a(rawmemchr-evex.os)
 .debug_abbrev  0x0000000000015911       0x14 /home/mritunjya/rooms/cryptography/crypto-hack/crackmes-one/glibc-2.34/build/libc_pic.a(stpcpy-evex.os)
 .debug_abbrev  0x0000000000015925       0x14 /home/mritunjya/rooms/cryptography/crypto-hack/crackmes-one/glibc-2.34/build/libc_pic.a(strchr-evex.os)
 .debug_abbrev  0x0000000000015939       0x14 /home/mritunjya/rooms/cryptography/crypto-hack/crackmes-one/glibc-2.34/build/libc_pic.a(strcmp-evex.os)
 .debug_abbrev  0x000000000001594d       0x14 /home/mritunjya/rooms/cryptography/crypto-hack/crackmes-one/glibc-2.34/build/libc_pic.a(strlen-evex.os)
 .debug_abbrev  0x0000000000015961       0x14 /home/mritunjya/rooms/cryptography/crypto-hack/crackmes-one/glibc-2.34/build/libc_pic.a(strncmp-evex.os)
 .debug_abbrev  0x0000000000015975       0x14 /home/mritunjya/rooms/cryptography/crypto-hack/crackmes-one/glibc-2.34/build/libc_pic.a(strnlen-evex.os)
 .debug_abbrev  0x0000000000015989       0x14 /home/mritunjya/rooms/cryptography/crypto-hack/crackmes-one/glibc-2.34/build/libc_pic.a(memchr-evex-rtm.os)
 .debug_abbrev  0x000000000001599d       0x14 /home/mritunjya/rooms/cryptography/crypto-hack/crackmes-one/glibc-2.34/build/libc_pic.a(rawmemchr-evex-rtm.os)
 .debug_abbrev  0x00000000000159b1      0x44d /home/mritunjya/rooms/cryptography/crypto-hack/crackmes-one/glibc-2.34/build/libc_pic.a(cacheinfo.os)
 .debug_abbrev  0x0000000000015dfe      0x229 /home/mritunjya/rooms/cryptography/crypto-hack/crackmes-one/glibc-2.34/build/libc_pic.a(closedir.os)
 .debug_abbrev  0x0000000000016027      0x21d /home/mritunjya/rooms/cryptography/crypto-hack/crackmes-one/glibc-2.34/build/libc_pic.a(rewinddir.os)
 .debug_abbrev  0x0000000000016244      0x248 /home/mritunjya/rooms/cryptography/crypto-hack/crackmes-one/glibc-2.34/build/libc_pic.a(readdir64.os)
 .debug_abbrev  0x000000000001648c      0x224 /home/mritunjya/rooms/cryptography/crypto-hack/crackmes-one/glibc-2.34/build/libc_pic.a(fdopendir.os)
 .debug_abbrev  0x00000000000166b0       0x14 /home/mritunjya/rooms/cryptography/crypto-hack/crackmes-one/glibc-2.34/build/libc_pic.a(uname.os)
 .debug_abbrev  0x00000000000166c4      0x1b3 /home/mritunjya/rooms/cryptography/crypto-hack/crackmes-one/glibc-2.34/build/libc_pic.a(_exit.os)
 .debug_abbrev  0x0000000000016877       0x14 /home/mritunjya/rooms/cryptography/crypto-hack/crackmes-one/glibc-2.34/build/libc_pic.a(getpid.os)
 .debug_abbrev  0x000000000001688b       0x82 /home/mritunjya/rooms/cryptography/crypto-hack/crackmes-one/glibc-2.34/build/libc_pic.a(environ.os)
 .debug_abbrev  0x000000000001690d      0x105 /home/mritunjya/rooms/cryptography/crypto-hack/crackmes-one/glibc-2.34/build/libc_pic.a(stat64.os)
 .debug_abbrev  0x0000000000016a12       0xea /home/mritunjya/rooms/cryptography/crypto-hack/crackmes-one/glibc-2.34/build/libc_pic.a(fstat64.os)
 .debug_abbrev  0x0000000000016afc      0x105 /home/mritunjya/rooms/cryptography/crypto-hack/crackmes-one/glibc-2.34/build/libc_pic.a(lstat64.os)
 .debug_abbrev  0x0000000000016c01      0x268 /home/mritunjya/rooms/cryptography/crypto-hack/crackmes-one/glibc-2.34/build/libc_pic.a(fstatat64.os)
 .debug_abbrev  0x0000000000016e69      0x3da /home/mritunjya/rooms/cryptography/crypto-hack/crackmes-one/glibc-2.34/build/libc_pic.a(openat64.os)
 .debug_abbrev  0x0000000000017243      0x1d2 /home/mritunjya/rooms/cryptography/crypto-hack/crackmes-one/glibc-2.34/build/libc_pic.a(lseek64.os)
 .debug_abbrev  0x0000000000017415      0x1af /home/mritunjya/rooms/cryptography/crypto-hack/crackmes-one/glibc-2.34/build/libc_pic.a(access.os)
 .debug_abbrev  0x00000000000175c4      0x1af /home/mritunjya/rooms/cryptography/crypto-hack/crackmes-one/glibc-2.34/build/libc_pic.a(close_nocancel.os)
 .debug_abbrev  0x0000000000017773      0x2cd /home/mritunjya/rooms/cryptography/crypto-hack/crackmes-one/glibc-2.34/build/libc_pic.a(fcntl_nocancel.os)
 .debug_abbrev  0x0000000000017a40      0x1f0 /home/mritunjya/rooms/cryptography/crypto-hack/crackmes-one/glibc-2.34/build/libc_pic.a(open64_nocancel.os)
 .debug_abbrev  0x0000000000017c30      0x1ca /home/mritunjya/rooms/cryptography/crypto-hack/crackmes-one/glibc-2.34/build/libc_pic.a(read_nocancel.os)
 .debug_abbrev  0x0000000000017dfa      0x1c1 /home/mritunjya/rooms/cryptography/crypto-hack/crackmes-one/glibc-2.34/build/libc_pic.a(pread64_nocancel.os)
 .debug_abbrev  0x0000000000017fbb      0x1c8 /home/mritunjya/rooms/cryptography/crypto-hack/crackmes-one/glibc-2.34/build/libc_pic.a(write_nocancel.os)
 .debug_abbrev  0x0000000000018183      0x450 /home/mritunjya/rooms/cryptography/crypto-hack/crackmes-one/glibc-2.34/build/libc_pic.a(mmap64.os)
 .debug_abbrev  0x00000000000185d3       0x14 /home/mritunjya/rooms/cryptography/crypto-hack/crackmes-one/glibc-2.34/build/libc_pic.a(munmap.os)
 .debug_abbrev  0x00000000000185e7       0x14 /home/mritunjya/rooms/cryptography/crypto-hack/crackmes-one/glibc-2.34/build/libc_pic.a(mprotect.os)
 .debug_abbrev  0x00000000000185fb      0x30e /home/mritunjya/rooms/cryptography/crypto-hack/crackmes-one/glibc-2.34/build/libc_pic.a(profil.os)
 .debug_abbrev  0x0000000000018909      0x37b /home/mritunjya/rooms/cryptography/crypto-hack/crackmes-one/glibc-2.34/build/libc_pic.a(prof-freq.os)
 .debug_abbrev  0x0000000000018c84      0x277 /home/mritunjya/rooms/cryptography/crypto-hack/crackmes-one/glibc-2.34/build/libc_pic.a(dl-addr-obj.os)
 .debug_abbrev  0x0000000000018efb      0x266 /home/mritunjya/rooms/cryptography/crypto-hack/crackmes-one/glibc-2.34/build/libc_pic.a(sigaction.os)
 .debug_abbrev  0x0000000000019161      0x22e /home/mritunjya/rooms/cryptography/crypto-hack/crackmes-one/glibc-2.34/build/libc_pic.a(libc_sigaction.os)
 .debug_abbrev  0x000000000001938f      0x1e1 /home/mritunjya/rooms/cryptography/crypto-hack/crackmes-one/glibc-2.34/build/libc_pic.a(setitimer.os)
 .debug_abbrev  0x0000000000019570      0x1ca /home/mritunjya/rooms/cryptography/crypto-hack/crackmes-one/glibc-2.34/build/libc_pic.a(getdents64.os)

.debug_line     0x0000000000000000    0x3cb79
 *(.debug_line)
 .debug_line    0x0000000000000000    0x28648 /home/mritunjya/rooms/cryptography/crypto-hack/crackmes-one/glibc-2.34/build/elf/dl-allobjs.os
 .debug_line    0x0000000000028648      0x39b /home/mritunjya/rooms/cryptography/crypto-hack/crackmes-one/glibc-2.34/build/libc_pic.a(check_fds.os)
 .debug_line    0x00000000000289e3      0x225 /home/mritunjya/rooms/cryptography/crypto-hack/crackmes-one/glibc-2.34/build/libc_pic.a(errno.os)
 .debug_line    0x0000000000028c08       0x65 /home/mritunjya/rooms/cryptography/crypto-hack/crackmes-one/glibc-2.34/build/libc_pic.a(setjmp.os)
 .debug_line    0x0000000000028c6d       0x72 /home/mritunjya/rooms/cryptography/crypto-hack/crackmes-one/glibc-2.34/build/libc_pic.a(__longjmp.os)
 .debug_line    0x0000000000028cdf      0x471 /home/mritunjya/rooms/cryptography/crypto-hack/crackmes-one/glibc-2.34/build/libc_pic.a(lowlevellock.os)
 .debug_line    0x0000000000029150      0x1fc /home/mritunjya/rooms/cryptography/crypto-hack/crackmes-one/glibc-2.34/build/libc_pic.a(scratch_buffer_set_array_size.os)
 .debug_line    0x000000000002934c      0x544 /home/mritunjya/rooms/cryptography/crypto-hack/crackmes-one/glibc-2.34/build/libc_pic.a(strchr.os)
 .debug_line    0x0000000000029890      0x54a /home/mritunjya/rooms/cryptography/crypto-hack/crackmes-one/glibc-2.34/build/libc_pic.a(strcmp.os)
 .debug_line    0x0000000000029dda      0x521 /home/mritunjya/rooms/cryptography/crypto-hack/crackmes-one/glibc-2.34/build/libc_pic.a(strcspn.os)
 .debug_line    0x000000000002a2fb      0x122 /home/mritunjya/rooms/cryptography/crypto-hack/crackmes-one/glibc-2.34/build/libc_pic.a(strdup.os)
 .debug_line    0x000000000002a41d      0x558 /home/mritunjya/rooms/cryptography/crypto-hack/crackmes-one/glibc-2.34/build/libc_pic.a(strlen.os)
 .debug_line    0x000000000002a975      0x559 /home/mritunjya/rooms/cryptography/crypto-hack/crackmes-one/glibc-2.34/build/libc_pic.a(strnlen.os)
 .debug_line    0x000000000002aece      0x549 /home/mritunjya/rooms/cryptography/crypto-hack/crackmes-one/glibc-2.34/build/libc_pic.a(strncmp.os)
 .debug_line    0x000000000002b417      0x55b /home/mritunjya/rooms/cryptography/crypto-hack/crackmes-one/glibc-2.34/build/libc_pic.a(memchr.os)
 .debug_line    0x000000000002b972      0x569 /home/mritunjya/rooms/cryptography/crypto-hack/crackmes-one/glibc-2.34/build/libc_pic.a(memcmp.os)
 .debug_line    0x000000000002bedb      0x5ad /home/mritunjya/rooms/cryptography/crypto-hack/crackmes-one/glibc-2.34/build/libc_pic.a(memmove.os)
 .debug_line    0x000000000002c488      0x5a0 /home/mritunjya/rooms/cryptography/crypto-hack/crackmes-one/glibc-2.34/build/libc_pic.a(memset.os)
 .debug_line    0x000000000002ca28      0x5ad /home/mritunjya/rooms/cryptography/crypto-hack/crackmes-one/glibc-2.34/build/libc_pic.a(mempcpy.os)
 .debug_line    0x000000000002cfd5      0x560 /home/mritunjya/rooms/cryptography/crypto-hack/crackmes-one/glibc-2.34/build/libc_pic.a(stpcpy.os)
 .debug_line    0x000000000002d535      0x5ac /home/mritunjya/rooms/cryptography/crypto-hack/crackmes-one/glibc-2.34/build/libc_pic.a(memcpy.os)
 .debug_line    0x000000000002dae1      0x55c /home/mritunjya/rooms/cryptography/crypto-hack/crackmes-one/glibc-2.34/build/libc_pic.a(rawmemchr.os)
 .debug_line    0x000000000002e03d      0x492 /home/mritunjya/rooms/cryptography/crypto-hack/crackmes-one/glibc-2.34/build/libc_pic.a(strcmp-sse2.os)
 .debug_line    0x000000000002e4cf      0x10d /home/mritunjya/rooms/cryptography/crypto-hack/crackmes-one/glibc-2.34/build/libc_pic.a(strcmp-sse2-unaligned.os)
 .debug_line    0x000000000002e5dc      0x462 /home/mritunjya/rooms/cryptography/crypto-hack/crackmes-one/glibc-2.34/build/libc_pic.a(strcmp-ssse3.os)
 .debug_line    0x000000000002ea3e      0x18b /home/mritunjya/rooms/cryptography/crypto-hack/crackmes-one/glibc-2.34/build/libc_pic.a(strcmp-avx2.os)
 .debug_line    0x000000000002ebc9      0x528 /home/mritunjya/rooms/cryptography/crypto-hack/crackmes-one/glibc-2.34/build/libc_pic.a(strncmp-sse2.os)
 .debug_line    0x000000000002f0f1      0x4ec /home/mritunjya/rooms/cryptography/crypto-hack/crackmes-one/glibc-2.34/build/libc_pic.a(strncmp-ssse3.os)
 .debug_line    0x000000000002f5dd      0x39b /home/mritunjya/rooms/cryptography/crypto-hack/crackmes-one/glibc-2.34/build/libc_pic.a(strncmp-sse4_2.os)
 .debug_line    0x000000000002f978      0x1b9 /home/mritunjya/rooms/cryptography/crypto-hack/crackmes-one/glibc-2.34/build/libc_pic.a(strncmp-avx2.os)
 .debug_line    0x000000000002fb31      0x127 /home/mritunjya/rooms/cryptography/crypto-hack/crackmes-one/glibc-2.34/build/libc_pic.a(memchr-sse2.os)
 .debug_line    0x000000000002fc58       0xd5 /home/mritunjya/rooms/cryptography/crypto-hack/crackmes-one/glibc-2.34/build/libc_pic.a(rawmemchr-sse2.os)
 .debug_line    0x000000000002fd2d      0x114 /home/mritunjya/rooms/cryptography/crypto-hack/crackmes-one/glibc-2.34/build/libc_pic.a(memchr-avx2.os)
 .debug_line    0x000000000002fe41       0xc5 /home/mritunjya/rooms/cryptography/crypto-hack/crackmes-one/glibc-2.34/build/libc_pic.a(rawmemchr-avx2.os)
 .debug_line    0x000000000002ff06      0x14d /home/mritunjya/rooms/cryptography/crypto-hack/crackmes-one/glibc-2.34/build/libc_pic.a(memcmp-sse2.os)
 .debug_line    0x0000000000030053      0x158 /home/mritunjya/rooms/cryptography/crypto-hack/crackmes-one/glibc-2.34/build/libc_pic.a(memcmp-avx2-movbe.os)
 .debug_line    0x00000000000301ab      0x501 /home/mritunjya/rooms/cryptography/crypto-hack/crackmes-one/glibc-2.34/build/libc_pic.a(memcmp-sse4.os)
 .debug_line    0x00000000000306ac      0x94c /home/mritunjya/rooms/cryptography/crypto-hack/crackmes-one/glibc-2.34/build/libc_pic.a(memcpy-ssse3.os)
 .debug_line    0x0000000000030ff8      0x9a0 /home/mritunjya/rooms/cryptography/crypto-hack/crackmes-one/glibc-2.34/build/libc_pic.a(memmove-ssse3.os)
 .debug_line    0x0000000000031998      0x882 /home/mritunjya/rooms/cryptography/crypto-hack/crackmes-one/glibc-2.34/build/libc_pic.a(memcpy-ssse3-back.os)
 .debug_line    0x000000000003221a      0x886 /home/mritunjya/rooms/cryptography/crypto-hack/crackmes-one/glibc-2.34/build/libc_pic.a(memmove-ssse3-back.os)
 .debug_line    0x0000000000032aa0      0x1b9 /home/mritunjya/rooms/cryptography/crypto-hack/crackmes-one/glibc-2.34/build/libc_pic.a(memmove-avx512-no-vzeroupper.os)
 .debug_line    0x0000000000032c59       0xe0 /home/mritunjya/rooms/cryptography/crypto-hack/crackmes-one/glibc-2.34/build/libc_pic.a(strchr-sse2.os)
 .debug_line    0x0000000000032d39       0xee /home/mritunjya/rooms/cryptography/crypto-hack/crackmes-one/glibc-2.34/build/libc_pic.a(strchr-avx2.os)
 .debug_line    0x0000000000032e27       0xa7 /home/mritunjya/rooms/cryptography/crypto-hack/crackmes-one/glibc-2.34/build/libc_pic.a(strlen-sse2.os)
 .debug_line    0x0000000000032ece       0xb8 /home/mritunjya/rooms/cryptography/crypto-hack/crackmes-one/glibc-2.34/build/libc_pic.a(strnlen-sse2.os)
 .debug_line    0x0000000000032f86       0xd6 /home/mritunjya/rooms/cryptography/crypto-hack/crackmes-one/glibc-2.34/build/libc_pic.a(strlen-avx2.os)
 .debug_line    0x000000000003305c      0x131 /home/mritunjya/rooms/cryptography/crypto-hack/crackmes-one/glibc-2.34/build/libc_pic.a(strnlen-avx2.os)
 .debug_line    0x000000000003318d       0x97 /home/mritunjya/rooms/cryptography/crypto-hack/crackmes-one/glibc-2.34/build/libc_pic.a(stpcpy-sse2.os)
 .debug_line    0x0000000000033224      0x628 /home/mritunjya/rooms/cryptography/crypto-hack/crackmes-one/glibc-2.34/build/libc_pic.a(stpcpy-ssse3.os)
 .debug_line    0x000000000003384c      0x1e3 /home/mritunjya/rooms/cryptography/crypto-hack/crackmes-one/glibc-2.34/build/libc_pic.a(stpcpy-sse2-unaligned.os)
 .debug_line    0x0000000000033a2f      0x143 /home/mritunjya/rooms/cryptography/crypto-hack/crackmes-one/glibc-2.34/build/libc_pic.a(stpcpy-avx2.os)
 .debug_line    0x0000000000033b72      0x112 /home/mritunjya/rooms/cryptography/crypto-hack/crackmes-one/glibc-2.34/build/libc_pic.a(strchr-sse2-no-bsf.os)
 .debug_line    0x0000000000033c84      0x5d0 /home/mritunjya/rooms/cryptography/crypto-hack/crackmes-one/glibc-2.34/build/libc_pic.a(memcmp-ssse3.os)
 .debug_line    0x0000000000034254       0x82 /home/mritunjya/rooms/cryptography/crypto-hack/crackmes-one/glibc-2.34/build/libc_pic.a(strcspn-sse2.os)
 .debug_line    0x00000000000342d6      0x4e3 /home/mritunjya/rooms/cryptography/crypto-hack/crackmes-one/glibc-2.34/build/libc_pic.a(strcspn-c.os)
 .debug_line    0x00000000000347b9       0xb4 /home/mritunjya/rooms/cryptography/crypto-hack/crackmes-one/glibc-2.34/build/libc_pic.a(varshift.os)
 .debug_line    0x000000000003486d       0xed /home/mritunjya/rooms/cryptography/crypto-hack/crackmes-one/glibc-2.34/build/libc_pic.a(memset-avx512-no-vzeroupper.os)
 .debug_line    0x000000000003495a      0x1cf /home/mritunjya/rooms/cryptography/crypto-hack/crackmes-one/glibc-2.34/build/libc_pic.a(memmove-sse2-unaligned-erms.os)
 .debug_line    0x0000000000034b29      0x1be /home/mritunjya/rooms/cryptography/crypto-hack/crackmes-one/glibc-2.34/build/libc_pic.a(memmove-avx-unaligned-erms.os)
 .debug_line    0x0000000000034ce7      0x1c6 /home/mritunjya/rooms/cryptography/crypto-hack/crackmes-one/glibc-2.34/build/libc_pic.a(memmove-avx512-unaligned-erms.os)
 .debug_line    0x0000000000034ead       0xd2 /home/mritunjya/rooms/cryptography/crypto-hack/crackmes-one/glibc-2.34/build/libc_pic.a(memset-sse2-unaligned-erms.os)
 .debug_line    0x0000000000034f7f       0xcb /home/mritunjya/rooms/cryptography/crypto-hack/crackmes-one/glibc-2.34/build/libc_pic.a(memset-avx2-unaligned-erms.os)
 .debug_line    0x000000000003504a       0xd6 /home/mritunjya/rooms/cryptography/crypto-hack/crackmes-one/glibc-2.34/build/libc_pic.a(memset-avx512-unaligned-erms.os)
 .debug_line    0x0000000000035120      0x113 /home/mritunjya/rooms/cryptography/crypto-hack/crackmes-one/glibc-2.34/build/libc_pic.a(memchr-avx2-rtm.os)
 .debug_line    0x0000000000035233      0x158 /home/mritunjya/rooms/cryptography/crypto-hack/crackmes-one/glibc-2.34/build/libc_pic.a(memcmp-avx2-movbe-rtm.os)
 .debug_line    0x000000000003538b      0x1be /home/mritunjya/rooms/cryptography/crypto-hack/crackmes-one/glibc-2.34/build/libc_pic.a(memmove-avx-unaligned-erms-rtm.os)
 .debug_line    0x0000000000035549       0xcc /home/mritunjya/rooms/cryptography/crypto-hack/crackmes-one/glibc-2.34/build/libc_pic.a(memset-avx2-unaligned-erms-rtm.os)
 .debug_line    0x0000000000035615       0xc5 /home/mritunjya/rooms/cryptography/crypto-hack/crackmes-one/glibc-2.34/build/libc_pic.a(rawmemchr-avx2-rtm.os)
 .debug_line    0x00000000000356da       0xee /home/mritunjya/rooms/cryptography/crypto-hack/crackmes-one/glibc-2.34/build/libc_pic.a(strchr-avx2-rtm.os)
 .debug_line    0x00000000000357c8      0x18e /home/mritunjya/rooms/cryptography/crypto-hack/crackmes-one/glibc-2.34/build/libc_pic.a(strcmp-avx2-rtm.os)
 .debug_line    0x0000000000035956      0x144 /home/mritunjya/rooms/cryptography/crypto-hack/crackmes-one/glibc-2.34/build/libc_pic.a(stpcpy-avx2-rtm.os)
 .debug_line    0x0000000000035a9a       0xd5 /home/mritunjya/rooms/cryptography/crypto-hack/crackmes-one/glibc-2.34/build/libc_pic.a(strlen-avx2-rtm.os)
 .debug_line    0x0000000000035b6f      0x1bb /home/mritunjya/rooms/cryptography/crypto-hack/crackmes-one/glibc-2.34/build/libc_pic.a(strncmp-avx2-rtm.os)
 .debug_line    0x0000000000035d2a      0x133 /home/mritunjya/rooms/cryptography/crypto-hack/crackmes-one/glibc-2.34/build/libc_pic.a(strnlen-avx2-rtm.os)
 .debug_line    0x0000000000035e5d      0x11c /home/mritunjya/rooms/cryptography/crypto-hack/crackmes-one/glibc-2.34/build/libc_pic.a(memchr-evex.os)
 .debug_line    0x0000000000035f79      0x15a /home/mritunjya/rooms/cryptography/crypto-hack/crackmes-one/glibc-2.34/build/libc_pic.a(memcmp-evex-movbe.os)
 .debug_line    0x00000000000360d3      0x1c5 /home/mritunjya/rooms/cryptography/crypto-hack/crackmes-one/glibc-2.34/build/libc_pic.a(memmove-evex-unaligned-erms.os)
 .debug_line    0x0000000000036298       0xd6 /home/mritunjya/rooms/cryptography/crypto-hack/crackmes-one/glibc-2.34/build/libc_pic.a(memset-evex-unaligned-erms.os)
 .debug_line    0x000000000003636e       0xc6 /home/mritunjya/rooms/cryptography/crypto-hack/crackmes-one/glibc-2.34/build/libc_pic.a(rawmemchr-evex.os)
 .debug_line    0x0000000000036434      0x142 /home/mritunjya/rooms/cryptography/crypto-hack/crackmes-one/glibc-2.34/build/libc_pic.a(stpcpy-evex.os)
 .debug_line    0x0000000000036576       0xe8 /home/mritunjya/rooms/cryptography/crypto-hack/crackmes-one/glibc-2.34/build/libc_pic.a(strchr-evex.os)
 .debug_line    0x000000000003665e      0x1b4 /home/mritunjya/rooms/cryptography/crypto-hack/crackmes-one/glibc-2.34/build/libc_pic.a(strcmp-evex.os)
 .debug_line    0x0000000000036812       0xc1 /home/mritunjya/rooms/cryptography/crypto-hack/crackmes-one/glibc-2.34/build/libc_pic.a(strlen-evex.os)
 .debug_line    0x00000000000368d3      0x1e2 /home/mritunjya/rooms/cryptography/crypto-hack/crackmes-one/glibc-2.34/build/libc_pic.a(strncmp-evex.os)
 .debug_line    0x0000000000036ab5      0x115 /home/mritunjya/rooms/cryptography/crypto-hack/crackmes-one/glibc-2.34/build/libc_pic.a(strnlen-evex.os)
 .debug_line    0x0000000000036bca      0x11b /home/mritunjya/rooms/cryptography/crypto-hack/crackmes-one/glibc-2.34/build/libc_pic.a(memchr-evex-rtm.os)
 .debug_line    0x0000000000036ce5       0xca /home/mritunjya/rooms/cryptography/crypto-hack/crackmes-one/glibc-2.34/build/libc_pic.a(rawmemchr-evex-rtm.os)
 .debug_line    0x0000000000036daf      0x628 /home/mritunjya/rooms/cryptography/crypto-hack/crackmes-one/glibc-2.34/build/libc_pic.a(cacheinfo.os)
 .debug_line    0x00000000000373d7      0x344 /home/mritunjya/rooms/cryptography/crypto-hack/crackmes-one/glibc-2.34/build/libc_pic.a(closedir.os)
 .debug_line    0x000000000003771b      0x42e /home/mritunjya/rooms/cryptography/crypto-hack/crackmes-one/glibc-2.34/build/libc_pic.a(rewinddir.os)
 .debug_line    0x0000000000037b49      0x439 /home/mritunjya/rooms/cryptography/crypto-hack/crackmes-one/glibc-2.34/build/libc_pic.a(readdir64.os)
 .debug_line    0x0000000000037f82      0x3e2 /home/mritunjya/rooms/cryptography/crypto-hack/crackmes-one/glibc-2.34/build/libc_pic.a(fdopendir.os)
 .debug_line    0x0000000000038364       0x59 /home/mritunjya/rooms/cryptography/crypto-hack/crackmes-one/glibc-2.34/build/libc_pic.a(uname.os)
 .debug_line    0x00000000000383bd      0x2f3 /home/mritunjya/rooms/cryptography/crypto-hack/crackmes-one/glibc-2.34/build/libc_pic.a(_exit.os)
 .debug_line    0x00000000000386b0       0x58 /home/mritunjya/rooms/cryptography/crypto-hack/crackmes-one/glibc-2.34/build/libc_pic.a(getpid.os)
 .debug_line    0x0000000000038708       0x75 /home/mritunjya/rooms/cryptography/crypto-hack/crackmes-one/glibc-2.34/build/libc_pic.a(environ.os)
 .debug_line    0x000000000003877d      0x10c /home/mritunjya/rooms/cryptography/crypto-hack/crackmes-one/glibc-2.34/build/libc_pic.a(stat64.os)
 .debug_line    0x0000000000038889      0x13b /home/mritunjya/rooms/cryptography/crypto-hack/crackmes-one/glibc-2.34/build/libc_pic.a(fstat64.os)
 .debug_line    0x00000000000389c4      0x10d /home/mritunjya/rooms/cryptography/crypto-hack/crackmes-one/glibc-2.34/build/libc_pic.a(lstat64.os)
 .debug_line    0x0000000000038ad1      0x2f2 /home/mritunjya/rooms/cryptography/crypto-hack/crackmes-one/glibc-2.34/build/libc_pic.a(fstatat64.os)
 .debug_line    0x0000000000038dc3      0x5cc /home/mritunjya/rooms/cryptography/crypto-hack/crackmes-one/glibc-2.34/build/libc_pic.a(openat64.os)
 .debug_line    0x000000000003938f      0x2a9 /home/mritunjya/rooms/cryptography/crypto-hack/crackmes-one/glibc-2.34/build/libc_pic.a(lseek64.os)
 .debug_line    0x0000000000039638      0x2ac /home/mritunjya/rooms/cryptography/crypto-hack/crackmes-one/glibc-2.34/build/libc_pic.a(access.os)
 .debug_line    0x00000000000398e4      0x2b2 /home/mritunjya/rooms/cryptography/crypto-hack/crackmes-one/glibc-2.34/build/libc_pic.a(close_nocancel.os)
 .debug_line    0x0000000000039b96      0x35c /home/mritunjya/rooms/cryptography/crypto-hack/crackmes-one/glibc-2.34/build/libc_pic.a(fcntl_nocancel.os)
 .debug_line    0x0000000000039ef2      0x32a /home/mritunjya/rooms/cryptography/crypto-hack/crackmes-one/glibc-2.34/build/libc_pic.a(open64_nocancel.os)
 .debug_line    0x000000000003a21c      0x2ee /home/mritunjya/rooms/cryptography/crypto-hack/crackmes-one/glibc-2.34/build/libc_pic.a(read_nocancel.os)
 .debug_line    0x000000000003a50a      0x2fa /home/mritunjya/rooms/cryptography/crypto-hack/crackmes-one/glibc-2.34/build/libc_pic.a(pread64_nocancel.os)
 .debug_line    0x000000000003a804      0x2ef /home/mritunjya/rooms/cryptography/crypto-hack/crackmes-one/glibc-2.34/build/libc_pic.a(write_nocancel.os)
 .debug_line    0x000000000003aaf3      0x638 /home/mritunjya/rooms/cryptography/crypto-hack/crackmes-one/glibc-2.34/build/libc_pic.a(mmap64.os)
 .debug_line    0x000000000003b12b       0x59 /home/mritunjya/rooms/cryptography/crypto-hack/crackmes-one/glibc-2.34/build/libc_pic.a(munmap.os)
 .debug_line    0x000000000003b184       0x59 /home/mritunjya/rooms/cryptography/crypto-hack/crackmes-one/glibc-2.34/build/libc_pic.a(mprotect.os)
 .debug_line    0x000000000003b1dd      0x4c2 /home/mritunjya/rooms/cryptography/crypto-hack/crackmes-one/glibc-2.34/build/libc_pic.a(profil.os)
 .debug_line    0x000000000003b69f      0x4d9 /home/mritunjya/rooms/cryptography/crypto-hack/crackmes-one/glibc-2.34/build/libc_pic.a(prof-freq.os)
 .debug_line    0x000000000003bb78      0x369 /home/mritunjya/rooms/cryptography/crypto-hack/crackmes-one/glibc-2.34/build/libc_pic.a(dl-addr-obj.os)
 .debug_line    0x000000000003bee1      0x325 /home/mritunjya/rooms/cryptography/crypto-hack/crackmes-one/glibc-2.34/build/libc_pic.a(sigaction.os)
 .debug_line    0x000000000003c206      0x408 /home/mritunjya/rooms/cryptography/crypto-hack/crackmes-one/glibc-2.34/build/libc_pic.a(libc_sigaction.os)
 .debug_line    0x000000000003c60e      0x2a9 /home/mritunjya/rooms/cryptography/crypto-hack/crackmes-one/glibc-2.34/build/libc_pic.a(setitimer.os)
 .debug_line    0x000000000003c8b7      0x2c2 /home/mritunjya/rooms/cryptography/crypto-hack/crackmes-one/glibc-2.34/build/libc_pic.a(getdents64.os)

.debug_frame
 *(.debug_frame)

.debug_str      0x0000000000000000    0xa801f
 *(.debug_str)
 .debug_str     0x0000000000000000    0x6f05b /home/mritunjya/rooms/cryptography/crypto-hack/crackmes-one/glibc-2.34/build/elf/dl-allobjs.os
 .debug_str     0x000000000006f05b      0x9f1 /home/mritunjya/rooms/cryptography/crypto-hack/crackmes-one/glibc-2.34/build/libc_pic.a(check_fds.os)
 .debug_str     0x000000000006fa4c      0x7a4 /home/mritunjya/rooms/cryptography/crypto-hack/crackmes-one/glibc-2.34/build/libc_pic.a(errno.os)
 .debug_str     0x00000000000701f0       0x75 /home/mritunjya/rooms/cryptography/crypto-hack/crackmes-one/glibc-2.34/build/libc_pic.a(setjmp.os)
 .debug_str     0x0000000000070265       0x78 /home/mritunjya/rooms/cryptography/crypto-hack/crackmes-one/glibc-2.34/build/libc_pic.a(__longjmp.os)
 .debug_str     0x00000000000702dd      0xd23 /home/mritunjya/rooms/cryptography/crypto-hack/crackmes-one/glibc-2.34/build/libc_pic.a(lowlevellock.os)
 .debug_str     0x0000000000071000      0x3b3 /home/mritunjya/rooms/cryptography/crypto-hack/crackmes-one/glibc-2.34/build/libc_pic.a(scratch_buffer_set_array_size.os)
 .debug_str     0x00000000000713b3     0x238a /home/mritunjya/rooms/cryptography/crypto-hack/crackmes-one/glibc-2.34/build/libc_pic.a(strchr.os)
 .debug_str     0x000000000007373d     0x238a /home/mritunjya/rooms/cryptography/crypto-hack/crackmes-one/glibc-2.34/build/libc_pic.a(strcmp.os)
 .debug_str     0x0000000000075ac7     0x1fad /home/mritunjya/rooms/cryptography/crypto-hack/crackmes-one/glibc-2.34/build/libc_pic.a(strcspn.os)
 .debug_str     0x0000000000077a74      0x335 /home/mritunjya/rooms/cryptography/crypto-hack/crackmes-one/glibc-2.34/build/libc_pic.a(strdup.os)
 .debug_str     0x0000000000077da9     0x238a /home/mritunjya/rooms/cryptography/crypto-hack/crackmes-one/glibc-2.34/build/libc_pic.a(strlen.os)
 .debug_str     0x000000000007a133     0x238f /home/mritunjya/rooms/cryptography/crypto-hack/crackmes-one/glibc-2.34/build/libc_pic.a(strnlen.os)
 .debug_str     0x000000000007c4c2     0x238d /home/mritunjya/rooms/cryptography/crypto-hack/crackmes-one/glibc-2.34/build/libc_pic.a(strncmp.os)
 .debug_str     0x000000000007e84f     0x238a /home/mritunjya/rooms/cryptography/crypto-hack/crackmes-one/glibc-2.34/build/libc_pic.a(memchr.os)
 .debug_str     0x0000000000080bd9     0x238a /home/mritunjya/rooms/cryptography/crypto-hack/crackmes-one/glibc-2.34/build/libc_pic.a(memcmp.os)
 .debug_str     0x0000000000082f63     0x2394 /home/mritunjya/rooms/cryptography/crypto-hack/crackmes-one/glibc-2.34/build/libc_pic.a(memmove.os)
 .debug_str     0x00000000000852f7     0x238a /home/mritunjya/rooms/cryptography/crypto-hack/crackmes-one/glibc-2.34/build/libc_pic.a(memset.os)
 .debug_str     0x0000000000087681     0x238f /home/mritunjya/rooms/cryptography/crypto-hack/crackmes-one/glibc-2.34/build/libc_pic.a(mempcpy.os)
 .debug_str     0x0000000000089a10     0x238c /home/mritunjya/rooms/cryptography/crypto-hack/crackmes-one/glibc-2.34/build/libc_pic.a(stpcpy.os)
 .debug_str     0x000000000008bd9c     0x2390 /home/mritunjya/rooms/cryptography/crypto-hack/crackmes-one/glibc-2.34/build/libc_pic.a(memcpy.os)
 .debug_str     0x000000000008e12c     0x2395 /home/mritunjya/rooms/cryptography/crypto-hack/crackmes-one/glibc-2.34/build/libc_pic.a(rawmemchr.os)
 .debug_str     0x00000000000904c1       0x75 /home/mritunjya/rooms/cryptography/crypto-hack/crackmes-one/glibc-2.34/build/libc_pic.a(strcmp-sse2.os)
 .debug_str     0x0000000000090536       0x8e /home/mritunjya/rooms/cryptography/crypto-hack/crackmes-one/glibc-2.34/build/libc_pic.a(strcmp-sse2-unaligned.os)
 .debug_str     0x00000000000905c4       0x82 /home/mritunjya/rooms/cryptography/crypto-hack/crackmes-one/glibc-2.34/build/libc_pic.a(strcmp-ssse3.os)
 .debug_str     0x0000000000090646       0x84 /home/mritunjya/rooms/cryptography/crypto-hack/crackmes-one/glibc-2.34/build/libc_pic.a(strcmp-avx2.os)
 .debug_str     0x00000000000906ca       0x75 /home/mritunjya/rooms/cryptography/crypto-hack/crackmes-one/glibc-2.34/build/libc_pic.a(strncmp-sse2.os)
 .debug_str     0x000000000009073f       0x75 /home/mritunjya/rooms/cryptography/crypto-hack/crackmes-one/glibc-2.34/build/libc_pic.a(strncmp-ssse3.os)
 .debug_str     0x00000000000907b4       0x85 /home/mritunjya/rooms/cryptography/crypto-hack/crackmes-one/glibc-2.34/build/libc_pic.a(strncmp-sse4_2.os)
 .debug_str     0x0000000000090839       0x84 /home/mritunjya/rooms/cryptography/crypto-hack/crackmes-one/glibc-2.34/build/libc_pic.a(strncmp-avx2.os)
 .debug_str     0x00000000000908bd       0x82 /home/mritunjya/rooms/cryptography/crypto-hack/crackmes-one/glibc-2.34/build/libc_pic.a(memchr-sse2.os)
 .debug_str     0x000000000009093f       0x85 /home/mritunjya/rooms/cryptography/crypto-hack/crackmes-one/glibc-2.34/build/libc_pic.a(rawmemchr-sse2.os)
 .debug_str     0x00000000000909c4       0x84 /home/mritunjya/rooms/cryptography/crypto-hack/crackmes-one/glibc-2.34/build/libc_pic.a(memchr-avx2.os)
 .debug_str     0x0000000000090a48       0x84 /home/mritunjya/rooms/cryptography/crypto-hack/crackmes-one/glibc-2.34/build/libc_pic.a(rawmemchr-avx2.os)
 .debug_str     0x0000000000090acc       0x75 /home/mritunjya/rooms/cryptography/crypto-hack/crackmes-one/glibc-2.34/build/libc_pic.a(memcmp-sse2.os)
 .debug_str     0x0000000000090b41       0x8a /home/mritunjya/rooms/cryptography/crypto-hack/crackmes-one/glibc-2.34/build/libc_pic.a(memcmp-avx2-movbe.os)
 .debug_str     0x0000000000090bcb       0x84 /home/mritunjya/rooms/cryptography/crypto-hack/crackmes-one/glibc-2.34/build/libc_pic.a(memcmp-sse4.os)
 .debug_str     0x0000000000090c4f       0x85 /home/mritunjya/rooms/cryptography/crypto-hack/crackmes-one/glibc-2.34/build/libc_pic.a(memcpy-ssse3.os)
 .debug_str     0x0000000000090cd4       0x85 /home/mritunjya/rooms/cryptography/crypto-hack/crackmes-one/glibc-2.34/build/libc_pic.a(memmove-ssse3.os)
 .debug_str     0x0000000000090d59       0x8a /home/mritunjya/rooms/cryptography/crypto-hack/crackmes-one/glibc-2.34/build/libc_pic.a(memcpy-ssse3-back.os)
 .debug_str     0x0000000000090de3       0x8a /home/mritunjya/rooms/cryptography/crypto-hack/crackmes-one/glibc-2.34/build/libc_pic.a(memmove-ssse3-back.os)
 .debug_str     0x0000000000090e6d       0x95 /home/mritunjya/rooms/cryptography/crypto-hack/crackmes-one/glibc-2.34/build/libc_pic.a(memmove-avx512-no-vzeroupper.os)
 .debug_str     0x0000000000090f02       0x82 /home/mritunjya/rooms/cryptography/crypto-hack/crackmes-one/glibc-2.34/build/libc_pic.a(strchr-sse2.os)
 .debug_str     0x0000000000090f84       0x84 /home/mritunjya/rooms/cryptography/crypto-hack/crackmes-one/glibc-2.34/build/libc_pic.a(strchr-avx2.os)
 .debug_str     0x0000000000091008       0x83 /home/mritunjya/rooms/cryptography/crypto-hack/crackmes-one/glibc-2.34/build/libc_pic.a(strlen-sse2.os)
 .debug_str     0x000000000009108b       0x90 /home/mritunjya/rooms/cryptography/crypto-hack/crackmes-one/glibc-2.34/build/libc_pic.a(strnlen-sse2.os)
 .debug_str     0x000000000009111b       0x84 /home/mritunjya/rooms/cryptography/crypto-hack/crackmes-one/glibc-2.34/build/libc_pic.a(strlen-avx2.os)
 .debug_str     0x000000000009119f       0x84 /home/mritunjya/rooms/cryptography/crypto-hack/crackmes-one/glibc-2.34/build/libc_pic.a(strnlen-avx2.os)
 .debug_str     0x0000000000091223       0x75 /home/mritunjya/rooms/cryptography/crypto-hack/crackmes-one/glibc-2.34/build/libc_pic.a(stpcpy-sse2.os)
 .debug_str     0x0000000000091298       0x85 /home/mritunjya/rooms/cryptography/crypto-hack/crackmes-one/glibc-2.34/build/libc_pic.a(stpcpy-ssse3.os)
 .debug_str     0x000000000009131d       0x8e /home/mritunjya/rooms/cryptography/crypto-hack/crackmes-one/glibc-2.34/build/libc_pic.a(stpcpy-sse2-unaligned.os)
 .debug_str     0x00000000000913ab       0x84 /home/mritunjya/rooms/cryptography/crypto-hack/crackmes-one/glibc-2.34/build/libc_pic.a(stpcpy-avx2.os)
 .debug_str     0x000000000009142f       0x8b /home/mritunjya/rooms/cryptography/crypto-hack/crackmes-one/glibc-2.34/build/libc_pic.a(strchr-sse2-no-bsf.os)
 .debug_str     0x00000000000914ba       0x85 /home/mritunjya/rooms/cryptography/crypto-hack/crackmes-one/glibc-2.34/build/libc_pic.a(memcmp-ssse3.os)
 .debug_str     0x000000000009153f       0x76 /home/mritunjya/rooms/cryptography/crypto-hack/crackmes-one/glibc-2.34/build/libc_pic.a(strcspn-sse2.os)
 .debug_str     0x00000000000915b5      0x435 /home/mritunjya/rooms/cryptography/crypto-hack/crackmes-one/glibc-2.34/build/libc_pic.a(strcspn-c.os)
 .debug_str     0x00000000000919ea      0x2ab /home/mritunjya/rooms/cryptography/crypto-hack/crackmes-one/glibc-2.34/build/libc_pic.a(varshift.os)
 .debug_str     0x0000000000091c95       0x94 /home/mritunjya/rooms/cryptography/crypto-hack/crackmes-one/glibc-2.34/build/libc_pic.a(memset-avx512-no-vzeroupper.os)
 .debug_str     0x0000000000091d29       0x93 /home/mritunjya/rooms/cryptography/crypto-hack/crackmes-one/glibc-2.34/build/libc_pic.a(memmove-sse2-unaligned-erms.os)
 .debug_str     0x0000000000091dbc       0x93 /home/mritunjya/rooms/cryptography/crypto-hack/crackmes-one/glibc-2.34/build/libc_pic.a(memmove-avx-unaligned-erms.os)
 .debug_str     0x0000000000091e4f       0x93 /home/mritunjya/rooms/cryptography/crypto-hack/crackmes-one/glibc-2.34/build/libc_pic.a(memmove-avx512-unaligned-erms.os)
 .debug_str     0x0000000000091ee2       0x92 /home/mritunjya/rooms/cryptography/crypto-hack/crackmes-one/glibc-2.34/build/libc_pic.a(memset-sse2-unaligned-erms.os)
 .debug_str     0x0000000000091f74       0x92 /home/mritunjya/rooms/cryptography/crypto-hack/crackmes-one/glibc-2.34/build/libc_pic.a(memset-avx2-unaligned-erms.os)
 .debug_str     0x0000000000092006       0x92 /home/mritunjya/rooms/cryptography/crypto-hack/crackmes-one/glibc-2.34/build/libc_pic.a(memset-avx512-unaligned-erms.os)
 .debug_str     0x0000000000092098       0x84 /home/mritunjya/rooms/cryptography/crypto-hack/crackmes-one/glibc-2.34/build/libc_pic.a(memchr-avx2-rtm.os)
 .debug_str     0x000000000009211c       0x8a /home/mritunjya/rooms/cryptography/crypto-hack/crackmes-one/glibc-2.34/build/libc_pic.a(memcmp-avx2-movbe-rtm.os)
 .debug_str     0x00000000000921a6       0x93 /home/mritunjya/rooms/cryptography/crypto-hack/crackmes-one/glibc-2.34/build/libc_pic.a(memmove-avx-unaligned-erms-rtm.os)
 .debug_str     0x0000000000092239       0x92 /home/mritunjya/rooms/cryptography/crypto-hack/crackmes-one/glibc-2.34/build/libc_pic.a(memset-avx2-unaligned-erms-rtm.os)
 .debug_str     0x00000000000922cb       0x84 /home/mritunjya/rooms/cryptography/crypto-hack/crackmes-one/glibc-2.34/build/libc_pic.a(rawmemchr-avx2-rtm.os)
 .debug_str     0x000000000009234f       0x84 /home/mritunjya/rooms/cryptography/crypto-hack/crackmes-one/glibc-2.34/build/libc_pic.a(strchr-avx2-rtm.os)
 .debug_str     0x00000000000923d3       0x84 /home/mritunjya/rooms/cryptography/crypto-hack/crackmes-one/glibc-2.34/build/libc_pic.a(strcmp-avx2-rtm.os)
 .debug_str     0x0000000000092457       0x84 /home/mritunjya/rooms/cryptography/crypto-hack/crackmes-one/glibc-2.34/build/libc_pic.a(stpcpy-avx2-rtm.os)
 .debug_str     0x00000000000924db       0x84 /home/mritunjya/rooms/cryptography/crypto-hack/crackmes-one/glibc-2.34/build/libc_pic.a(strlen-avx2-rtm.os)
 .debug_str     0x000000000009255f       0x84 /home/mritunjya/rooms/cryptography/crypto-hack/crackmes-one/glibc-2.34/build/libc_pic.a(strncmp-avx2-rtm.os)
 .debug_str     0x00000000000925e3       0x84 /home/mritunjya/rooms/cryptography/crypto-hack/crackmes-one/glibc-2.34/build/libc_pic.a(strnlen-avx2-rtm.os)
 .debug_str     0x0000000000092667       0x84 /home/mritunjya/rooms/cryptography/crypto-hack/crackmes-one/glibc-2.34/build/libc_pic.a(memchr-evex.os)
 .debug_str     0x00000000000926eb       0x8a /home/mritunjya/rooms/cryptography/crypto-hack/crackmes-one/glibc-2.34/build/libc_pic.a(memcmp-evex-movbe.os)
 .debug_str     0x0000000000092775       0x93 /home/mritunjya/rooms/cryptography/crypto-hack/crackmes-one/glibc-2.34/build/libc_pic.a(memmove-evex-unaligned-erms.os)
 .debug_str     0x0000000000092808       0x92 /home/mritunjya/rooms/cryptography/crypto-hack/crackmes-one/glibc-2.34/build/libc_pic.a(memset-evex-unaligned-erms.os)
 .debug_str     0x000000000009289a       0x84 /home/mritunjya/rooms/cryptography/crypto-hack/crackmes-one/glibc-2.34/build/libc_pic.a(rawmemchr-evex.os)
 .debug_str     0x000000000009291e       0x84 /home/mritunjya/rooms/cryptography/crypto-hack/crackmes-one/glibc-2.34/build/libc_pic.a(stpcpy-evex.os)
 .debug_str     0x00000000000929a2       0x84 /home/mritunjya/rooms/cryptography/crypto-hack/crackmes-one/glibc-2.34/build/libc_pic.a(strchr-evex.os)
 .debug_str     0x0000000000092a26       0x84 /home/mritunjya/rooms/cryptography/crypto-hack/crackmes-one/glibc-2.34/build/libc_pic.a(strcmp-evex.os)
 .debug_str     0x0000000000092aaa       0x84 /home/mritunjya/rooms/cryptography/crypto-hack/crackmes-one/glibc-2.34/build/libc_pic.a(strlen-evex.os)
 .debug_str     0x0000000000092b2e       0x84 /home/mritunjya/rooms/cryptography/crypto-hack/crackmes-one/glibc-2.34/build/libc_pic.a(strncmp-evex.os)
 .debug_str     0x0000000000092bb2       0x84 /home/mritunjya/rooms/cryptography/crypto-hack/crackmes-one/glibc-2.34/build/libc_pic.a(strnlen-evex.os)
 .debug_str     0x0000000000092c36       0x84 /home/mritunjya/rooms/cryptography/crypto-hack/crackmes-one/glibc-2.34/build/libc_pic.a(memchr-evex-rtm.os)
 .debug_str     0x0000000000092cba       0x84 /home/mritunjya/rooms/cryptography/crypto-hack/crackmes-one/glibc-2.34/build/libc_pic.a(rawmemchr-evex-rtm.os)
 .debug_str     0x0000000000092d3e     0x36d7 /home/mritunjya/rooms/cryptography/crypto-hack/crackmes-one/glibc-2.34/build/libc_pic.a(cacheinfo.os)
 .debug_str     0x0000000000096415      0x8c4 /home/mritunjya/rooms/cryptography/crypto-hack/crackmes-one/glibc-2.34/build/libc_pic.a(closedir.os)
 .debug_str     0x0000000000096cd9      0x964 /home/mritunjya/rooms/cryptography/crypto-hack/crackmes-one/glibc-2.34/build/libc_pic.a(rewinddir.os)
 .debug_str     0x000000000009763d      0x981 /home/mritunjya/rooms/cryptography/crypto-hack/crackmes-one/glibc-2.34/build/libc_pic.a(readdir64.os)
 .debug_str     0x0000000000097fbe      0x9fd /home/mritunjya/rooms/cryptography/crypto-hack/crackmes-one/glibc-2.34/build/libc_pic.a(fdopendir.os)
 .debug_str     0x00000000000989bb       0x7c /home/mritunjya/rooms/cryptography/crypto-hack/crackmes-one/glibc-2.34/build/libc_pic.a(uname.os)
 .debug_str     0x0000000000098a37      0x84b /home/mritunjya/rooms/cryptography/crypto-hack/crackmes-one/glibc-2.34/build/libc_pic.a(_exit.os)
 .debug_str     0x0000000000099282       0x7c /home/mritunjya/rooms/cryptography/crypto-hack/crackmes-one/glibc-2.34/build/libc_pic.a(getpid.os)
 .debug_str     0x00000000000992fe      0x248 /home/mritunjya/rooms/cryptography/crypto-hack/crackmes-one/glibc-2.34/build/libc_pic.a(environ.os)
 .debug_str     0x0000000000099546      0x335 /home/mritunjya/rooms/cryptography/crypto-hack/crackmes-one/glibc-2.34/build/libc_pic.a(stat64.os)
 .debug_str     0x000000000009987b      0x376 /home/mritunjya/rooms/cryptography/crypto-hack/crackmes-one/glibc-2.34/build/libc_pic.a(fstat64.os)
 .debug_str     0x0000000000099bf1      0x338 /home/mritunjya/rooms/cryptography/crypto-hack/crackmes-one/glibc-2.34/build/libc_pic.a(lstat64.os)
 .debug_str     0x0000000000099f29      0x93f /home/mritunjya/rooms/cryptography/crypto-hack/crackmes-one/glibc-2.34/build/libc_pic.a(fstatat64.os)
 .debug_str     0x000000000009a868     0x1114 /home/mritunjya/rooms/cryptography/crypto-hack/crackmes-one/glibc-2.34/build/libc_pic.a(openat64.os)
 .debug_str     0x000000000009b97c      0x86a /home/mritunjya/rooms/cryptography/crypto-hack/crackmes-one/glibc-2.34/build/libc_pic.a(lseek64.os)
 .debug_str     0x000000000009c1e6      0x867 /home/mritunjya/rooms/cryptography/crypto-hack/crackmes-one/glibc-2.34/build/libc_pic.a(access.os)
 .debug_str     0x000000000009ca4d      0x86e /home/mritunjya/rooms/cryptography/crypto-hack/crackmes-one/glibc-2.34/build/libc_pic.a(close_nocancel.os)
 .debug_str     0x000000000009d2bb      0x95b /home/mritunjya/rooms/cryptography/crypto-hack/crackmes-one/glibc-2.34/build/libc_pic.a(fcntl_nocancel.os)
 .debug_str     0x000000000009dc16      0x901 /home/mritunjya/rooms/cryptography/crypto-hack/crackmes-one/glibc-2.34/build/libc_pic.a(open64_nocancel.os)
 .debug_str     0x000000000009e517      0x899 /home/mritunjya/rooms/cryptography/crypto-hack/crackmes-one/glibc-2.34/build/libc_pic.a(read_nocancel.os)
 .debug_str     0x000000000009edb0      0x8c1 /home/mritunjya/rooms/cryptography/crypto-hack/crackmes-one/glibc-2.34/build/libc_pic.a(pread64_nocancel.os)
 .debug_str     0x000000000009f671      0x89c /home/mritunjya/rooms/cryptography/crypto-hack/crackmes-one/glibc-2.34/build/libc_pic.a(write_nocancel.os)
 .debug_str     0x000000000009ff0d     0x238d /home/mritunjya/rooms/cryptography/crypto-hack/crackmes-one/glibc-2.34/build/libc_pic.a(mmap64.os)
 .debug_str     0x00000000000a229a       0x7b /home/mritunjya/rooms/cryptography/crypto-hack/crackmes-one/glibc-2.34/build/libc_pic.a(munmap.os)
 .debug_str     0x00000000000a2315       0x7b /home/mritunjya/rooms/cryptography/crypto-hack/crackmes-one/glibc-2.34/build/libc_pic.a(mprotect.os)
 .debug_str     0x00000000000a2390      0x95e /home/mritunjya/rooms/cryptography/crypto-hack/crackmes-one/glibc-2.34/build/libc_pic.a(profil.os)
 .debug_str     0x00000000000a2cee     0x1f1c /home/mritunjya/rooms/cryptography/crypto-hack/crackmes-one/glibc-2.34/build/libc_pic.a(prof-freq.os)
 .debug_str     0x00000000000a4c0a      0xf43 /home/mritunjya/rooms/cryptography/crypto-hack/crackmes-one/glibc-2.34/build/libc_pic.a(dl-addr-obj.os)
 .debug_str     0x00000000000a5b4d      0x9ea /home/mritunjya/rooms/cryptography/crypto-hack/crackmes-one/glibc-2.34/build/libc_pic.a(sigaction.os)
 .debug_str     0x00000000000a6537      0xa24 /home/mritunjya/rooms/cryptography/crypto-hack/crackmes-one/glibc-2.34/build/libc_pic.a(libc_sigaction.os)
 .debug_str     0x00000000000a6f5b      0x89e /home/mritunjya/rooms/cryptography/crypto-hack/crackmes-one/glibc-2.34/build/libc_pic.a(setitimer.os)
 .debug_str     0x00000000000a77f9      0x826 /home/mritunjya/rooms/cryptography/crypto-hack/crackmes-one/glibc-2.34/build/libc_pic.a(getdents64.os)

.debug_loc      0x0000000000000000    0x4f6e9
 *(.debug_loc)
 .debug_loc     0x0000000000000000    0x4aa89 /home/mritunjya/rooms/cryptography/crypto-hack/crackmes-one/glibc-2.34/build/elf/dl-allobjs.os
 .debug_loc     0x000000000004aa89      0x1bd /home/mritunjya/rooms/cryptography/crypto-hack/crackmes-one/glibc-2.34/build/libc_pic.a(check_fds.os)
 .debug_loc     0x000000000004ac46      0x5ee /home/mritunjya/rooms/cryptography/crypto-hack/crackmes-one/glibc-2.34/build/libc_pic.a(lowlevellock.os)
 .debug_loc     0x000000000004b234      0x402 /home/mritunjya/rooms/cryptography/crypto-hack/crackmes-one/glibc-2.34/build/libc_pic.a(scratch_buffer_set_array_size.os)
 .debug_loc     0x000000000004b636      0x11d /home/mritunjya/rooms/cryptography/crypto-hack/crackmes-one/glibc-2.34/build/libc_pic.a(strdup.os)
 .debug_loc     0x000000000004b753      0xb1e /home/mritunjya/rooms/cryptography/crypto-hack/crackmes-one/glibc-2.34/build/libc_pic.a(strcspn-c.os)
 .debug_loc     0x000000000004c271      0x119 /home/mritunjya/rooms/cryptography/crypto-hack/crackmes-one/glibc-2.34/build/libc_pic.a(cacheinfo.os)
 .debug_loc     0x000000000004c38a       0x8c /home/mritunjya/rooms/cryptography/crypto-hack/crackmes-one/glibc-2.34/build/libc_pic.a(closedir.os)
 .debug_loc     0x000000000004c416      0x27a /home/mritunjya/rooms/cryptography/crypto-hack/crackmes-one/glibc-2.34/build/libc_pic.a(rewinddir.os)
 .debug_loc     0x000000000004c690      0x444 /home/mritunjya/rooms/cryptography/crypto-hack/crackmes-one/glibc-2.34/build/libc_pic.a(readdir64.os)
 .debug_loc     0x000000000004cad4       0xce /home/mritunjya/rooms/cryptography/crypto-hack/crackmes-one/glibc-2.34/build/libc_pic.a(fdopendir.os)
 .debug_loc     0x000000000004cba2      0x16c /home/mritunjya/rooms/cryptography/crypto-hack/crackmes-one/glibc-2.34/build/libc_pic.a(_exit.os)
 .debug_loc     0x000000000004cd0e       0xa4 /home/mritunjya/rooms/cryptography/crypto-hack/crackmes-one/glibc-2.34/build/libc_pic.a(stat64.os)
 .debug_loc     0x000000000004cdb2       0xb9 /home/mritunjya/rooms/cryptography/crypto-hack/crackmes-one/glibc-2.34/build/libc_pic.a(fstat64.os)
 .debug_loc     0x000000000004ce6b       0xa4 /home/mritunjya/rooms/cryptography/crypto-hack/crackmes-one/glibc-2.34/build/libc_pic.a(lstat64.os)
 .debug_loc     0x000000000004cf0f      0x265 /home/mritunjya/rooms/cryptography/crypto-hack/crackmes-one/glibc-2.34/build/libc_pic.a(fstatat64.os)
 .debug_loc     0x000000000004d174      0x6c3 /home/mritunjya/rooms/cryptography/crypto-hack/crackmes-one/glibc-2.34/build/libc_pic.a(openat64.os)
 .debug_loc     0x000000000004d837      0x10e /home/mritunjya/rooms/cryptography/crypto-hack/crackmes-one/glibc-2.34/build/libc_pic.a(lseek64.os)
 .debug_loc     0x000000000004d945       0x94 /home/mritunjya/rooms/cryptography/crypto-hack/crackmes-one/glibc-2.34/build/libc_pic.a(access.os)
 .debug_loc     0x000000000004d9d9       0x6f /home/mritunjya/rooms/cryptography/crypto-hack/crackmes-one/glibc-2.34/build/libc_pic.a(close_nocancel.os)
 .debug_loc     0x000000000004da48      0x3d0 /home/mritunjya/rooms/cryptography/crypto-hack/crackmes-one/glibc-2.34/build/libc_pic.a(fcntl_nocancel.os)
 .debug_loc     0x000000000004de18      0x2e8 /home/mritunjya/rooms/cryptography/crypto-hack/crackmes-one/glibc-2.34/build/libc_pic.a(open64_nocancel.os)
 .debug_loc     0x000000000004e100      0x10e /home/mritunjya/rooms/cryptography/crypto-hack/crackmes-one/glibc-2.34/build/libc_pic.a(read_nocancel.os)
 .debug_loc     0x000000000004e20e      0x182 /home/mritunjya/rooms/cryptography/crypto-hack/crackmes-one/glibc-2.34/build/libc_pic.a(pread64_nocancel.os)
 .debug_loc     0x000000000004e390      0x10e /home/mritunjya/rooms/cryptography/crypto-hack/crackmes-one/glibc-2.34/build/libc_pic.a(write_nocancel.os)
 .debug_loc     0x000000000004e49e      0x76f /home/mritunjya/rooms/cryptography/crypto-hack/crackmes-one/glibc-2.34/build/libc_pic.a(mmap64.os)
 .debug_loc     0x000000000004ec0d      0x3da /home/mritunjya/rooms/cryptography/crypto-hack/crackmes-one/glibc-2.34/build/libc_pic.a(profil.os)
 .debug_loc     0x000000000004efe7       0x90 /home/mritunjya/rooms/cryptography/crypto-hack/crackmes-one/glibc-2.34/build/libc_pic.a(dl-addr-obj.os)
 .debug_loc     0x000000000004f077      0x11b /home/mritunjya/rooms/cryptography/crypto-hack/crackmes-one/glibc-2.34/build/libc_pic.a(sigaction.os)
 .debug_loc     0x000000000004f192      0x292 /home/mritunjya/rooms/cryptography/crypto-hack/crackmes-one/glibc-2.34/build/libc_pic.a(libc_sigaction.os)
 .debug_loc     0x000000000004f424      0x10e /home/mritunjya/rooms/cryptography/crypto-hack/crackmes-one/glibc-2.34/build/libc_pic.a(setitimer.os)
 .debug_loc     0x000000000004f532      0x1b7 /home/mritunjya/rooms/cryptography/crypto-hack/crackmes-one/glibc-2.34/build/libc_pic.a(getdents64.os)

.debug_macinfo
 *(.debug_macinfo)

.debug_weaknames
 *(.debug_weaknames)

.debug_funcnames
 *(.debug_funcnames)

.debug_typenames
 *(.debug_typenames)

.debug_varnames
 *(.debug_varnames)

.debug_pubtypes
 *(.debug_pubtypes)

.debug_ranges   0x0000000000000000     0xd260
 *(.debug_ranges)
 .debug_ranges  0x0000000000000000     0xc380 /home/mritunjya/rooms/cryptography/crypto-hack/crackmes-one/glibc-2.34/build/elf/dl-allobjs.os
 .debug_ranges  0x000000000000c380       0xc0 /home/mritunjya/rooms/cryptography/crypto-hack/crackmes-one/glibc-2.34/build/libc_pic.a(lowlevellock.os)
 .debug_ranges  0x000000000000c440       0x30 /home/mritunjya/rooms/cryptography/crypto-hack/crackmes-one/glibc-2.34/build/libc_pic.a(scratch_buffer_set_array_size.os)
 .debug_ranges  0x000000000000c470       0x40 /home/mritunjya/rooms/cryptography/crypto-hack/crackmes-one/glibc-2.34/build/libc_pic.a(strchr.os)
 .debug_ranges  0x000000000000c4b0       0x40 /home/mritunjya/rooms/cryptography/crypto-hack/crackmes-one/glibc-2.34/build/libc_pic.a(strcmp.os)
 .debug_ranges  0x000000000000c4f0       0x40 /home/mritunjya/rooms/cryptography/crypto-hack/crackmes-one/glibc-2.34/build/libc_pic.a(strlen.os)
 .debug_ranges  0x000000000000c530       0x40 /home/mritunjya/rooms/cryptography/crypto-hack/crackmes-one/glibc-2.34/build/libc_pic.a(strnlen.os)
 .debug_ranges  0x000000000000c570       0x30 /home/mritunjya/rooms/cryptography/crypto-hack/crackmes-one/glibc-2.34/build/libc_pic.a(strncmp.os)
 .debug_ranges  0x000000000000c5a0       0x40 /home/mritunjya/rooms/cryptography/crypto-hack/crackmes-one/glibc-2.34/build/libc_pic.a(memchr.os)
 .debug_ranges  0x000000000000c5e0       0x40 /home/mritunjya/rooms/cryptography/crypto-hack/crackmes-one/glibc-2.34/build/libc_pic.a(memcmp.os)
 .debug_ranges  0x000000000000c620       0x30 /home/mritunjya/rooms/cryptography/crypto-hack/crackmes-one/glibc-2.34/build/libc_pic.a(memmove.os)
 .debug_ranges  0x000000000000c650       0x30 /home/mritunjya/rooms/cryptography/crypto-hack/crackmes-one/glibc-2.34/build/libc_pic.a(memset.os)
 .debug_ranges  0x000000000000c680       0x30 /home/mritunjya/rooms/cryptography/crypto-hack/crackmes-one/glibc-2.34/build/libc_pic.a(mempcpy.os)
 .debug_ranges  0x000000000000c6b0       0x40 /home/mritunjya/rooms/cryptography/crypto-hack/crackmes-one/glibc-2.34/build/libc_pic.a(stpcpy.os)
 .debug_ranges  0x000000000000c6f0       0x30 /home/mritunjya/rooms/cryptography/crypto-hack/crackmes-one/glibc-2.34/build/libc_pic.a(memcpy.os)
 .debug_ranges  0x000000000000c720       0x40 /home/mritunjya/rooms/cryptography/crypto-hack/crackmes-one/glibc-2.34/build/libc_pic.a(rawmemchr.os)
 .debug_ranges  0x000000000000c760      0x3b0 /home/mritunjya/rooms/cryptography/crypto-hack/crackmes-one/glibc-2.34/build/libc_pic.a(strcspn-c.os)
 .debug_ranges  0x000000000000cb10       0xe0 /home/mritunjya/rooms/cryptography/crypto-hack/crackmes-one/glibc-2.34/build/libc_pic.a(rewinddir.os)
 .debug_ranges  0x000000000000cbf0      0x120 /home/mritunjya/rooms/cryptography/crypto-hack/crackmes-one/glibc-2.34/build/libc_pic.a(readdir64.os)
 .debug_ranges  0x000000000000cd10       0xd0 /home/mritunjya/rooms/cryptography/crypto-hack/crackmes-one/glibc-2.34/build/libc_pic.a(_exit.os)
 .debug_ranges  0x000000000000cde0      0x110 /home/mritunjya/rooms/cryptography/crypto-hack/crackmes-one/glibc-2.34/build/libc_pic.a(openat64.os)
 .debug_ranges  0x000000000000cef0       0x30 /home/mritunjya/rooms/cryptography/crypto-hack/crackmes-one/glibc-2.34/build/libc_pic.a(lseek64.os)
 .debug_ranges  0x000000000000cf20       0x30 /home/mritunjya/rooms/cryptography/crypto-hack/crackmes-one/glibc-2.34/build/libc_pic.a(access.os)
 .debug_ranges  0x000000000000cf50       0x30 /home/mritunjya/rooms/cryptography/crypto-hack/crackmes-one/glibc-2.34/build/libc_pic.a(close_nocancel.os)
 .debug_ranges  0x000000000000cf80       0x60 /home/mritunjya/rooms/cryptography/crypto-hack/crackmes-one/glibc-2.34/build/libc_pic.a(fcntl_nocancel.os)
 .debug_ranges  0x000000000000cfe0       0x30 /home/mritunjya/rooms/cryptography/crypto-hack/crackmes-one/glibc-2.34/build/libc_pic.a(open64_nocancel.os)
 .debug_ranges  0x000000000000d010       0x30 /home/mritunjya/rooms/cryptography/crypto-hack/crackmes-one/glibc-2.34/build/libc_pic.a(read_nocancel.os)
 .debug_ranges  0x000000000000d040       0x70 /home/mritunjya/rooms/cryptography/crypto-hack/crackmes-one/glibc-2.34/build/libc_pic.a(pread64_nocancel.os)
 .debug_ranges  0x000000000000d0b0       0x30 /home/mritunjya/rooms/cryptography/crypto-hack/crackmes-one/glibc-2.34/build/libc_pic.a(write_nocancel.os)
 .debug_ranges  0x000000000000d0e0       0x40 /home/mritunjya/rooms/cryptography/crypto-hack/crackmes-one/glibc-2.34/build/libc_pic.a(mmap64.os)
 .debug_ranges  0x000000000000d120       0xe0 /home/mritunjya/rooms/cryptography/crypto-hack/crackmes-one/glibc-2.34/build/libc_pic.a(libc_sigaction.os)
 .debug_ranges  0x000000000000d200       0x30 /home/mritunjya/rooms/cryptography/crypto-hack/crackmes-one/glibc-2.34/build/libc_pic.a(setitimer.os)
 .debug_ranges  0x000000000000d230       0x30 /home/mritunjya/rooms/cryptography/crypto-hack/crackmes-one/glibc-2.34/build/libc_pic.a(getdents64.os)

.debug_macro
 *(.debug_macro)

.debug_addr
 *(.debug_addr)

.gnu.attributes
 *(.gnu.attributes)
OUTPUT(/home/mritunjya/rooms/cryptography/crypto-hack/crackmes-one/glibc-2.34/build/elf/librtld.map.o elf64-x86-64)
